ARM GAS  C:\Users\DHEERA~1\AppData\Local\Temp\ccSpG7f5.s 			page 1


   1              		.syntax unified
   2              		.cpu cortex-m3
   3              		.fpu softvfp
   4              		.eabi_attribute 20, 1
   5              		.eabi_attribute 21, 1
   6              		.eabi_attribute 23, 3
   7              		.eabi_attribute 24, 1
   8              		.eabi_attribute 25, 1
   9              		.eabi_attribute 26, 1
  10              		.eabi_attribute 30, 1
  11              		.eabi_attribute 34, 1
  12              		.eabi_attribute 18, 4
  13              		.thumb
  14              		.syntax unified
  15              		.file	"arcadian.c"
  16              		.text
  17              	.Ltext0:
  18              		.cfi_sections	.debug_frame
  19              		.section	.text.fader_Effect,"ax",%progbits
  20              		.align	2
  21              		.global	fader_Effect
  22              		.thumb
  23              		.thumb_func
  24              		.type	fader_Effect, %function
  25              	fader_Effect:
  26              	.LFB110:
  27              		.file 1 "arcadian.c"
   1:arcadian.c    **** /* ========================================
   2:arcadian.c    ****  *
   3:arcadian.c    ****  * Copyright YOUR COMPANY, THE YEAR
   4:arcadian.c    ****  * All Rights Reserved
   5:arcadian.c    ****  * UNPUBLISHED, LICENSED SOFTWARE.
   6:arcadian.c    ****  *
   7:arcadian.c    ****  * CONFIDENTIAL AND PROPRIETARY INFORMATION
   8:arcadian.c    ****  * WHICH IS THE PROPERTY OF your company.
   9:arcadian.c    ****  *
  10:arcadian.c    ****  * ========================================
  11:arcadian.c    **** */
  12:arcadian.c    **** 
  13:arcadian.c    **** /**
  14:arcadian.c    ****  * @file arcadian.c
  15:arcadian.c    ****  * @brief Implementation of LED fading and glowing operations.
  16:arcadian.c    ****  */
  17:arcadian.c    **** 
  18:arcadian.c    **** #include "project.h"
  19:arcadian.c    **** #include "arcadian.h"
  20:arcadian.c    **** 
  21:arcadian.c    **** /**
  22:arcadian.c    ****  * @brief Table defining a sequence of RGB colors and durations for glowing the LED.
  23:arcadian.c    ****  */
  24:arcadian.c    **** const RG_Glow_t RG_glow_table[] =
  25:arcadian.c    **** {
  26:arcadian.c    ****   //Red  Green  Blue  TimeInMS
  27:arcadian.c    ****     {255,  0,    0,    500},      // Red
  28:arcadian.c    ****     { 0,  255,   0,    500},      // Green
  29:arcadian.c    ****     { 0,   0,   255,   500},      // Blue
  30:arcadian.c    ****     { 0,   0,    0,    100},      // Off
ARM GAS  C:\Users\DHEERA~1\AppData\Local\Temp\ccSpG7f5.s 			page 2


  31:arcadian.c    ****     {255, 255,  255,   100},      // White
  32:arcadian.c    ****     { 0,   0,    0,    100},      // Off
  33:arcadian.c    ****     {255, 255,  255,   100},      // White
  34:arcadian.c    ****     { 0,   0,    0,    100},      // Off
  35:arcadian.c    ****     {255, 255,  255,   100},      // White
  36:arcadian.c    **** };
  37:arcadian.c    **** 
  38:arcadian.c    **** /**
  39:arcadian.c    **** * Function to fade and cycle through Red yellow and green LEDs
  40:arcadian.c    **** * @param none
  41:arcadian.c    **** * @return RC_SUCCESS if ok
  42:arcadian.c    **** */
  43:arcadian.c    **** RC_t fader_Effect()
  44:arcadian.c    **** {
  28              		.loc 1 44 0
  29              		.cfi_startproc
  30              		@ args = 0, pretend = 0, frame = 0
  31              		@ frame_needed = 0, uses_anonymous_args = 0
  32 0000 08B5     		push	{r3, lr}
  33              		.cfi_def_cfa_offset 8
  34              		.cfi_offset 3, -8
  35              		.cfi_offset 14, -4
  45:arcadian.c    ****     // Initialization of led Intensity
  46:arcadian.c    ****     static unsigned int redIntense = 0, yellowIntense = 0, greenIntense = 0;
  47:arcadian.c    ****     
  48:arcadian.c    ****     SetRelAlarm(alrm_fader, 10, 5);
  36              		.loc 1 48 0
  37 0002 0522     		movs	r2, #5
  38 0004 0A21     		movs	r1, #10
  39 0006 0220     		movs	r0, #2
  40 0008 FFF7FEFF 		bl	EE_oo_SetRelAlarm
  41              	.LVL0:
  49:arcadian.c    ****     if (redIntense < 255 && yellowIntense == 0 && greenIntense == 0) 
  42              		.loc 1 49 0
  43 000c 254B     		ldr	r3, .L7
  44 000e 1868     		ldr	r0, [r3]
  45 0010 FE28     		cmp	r0, #254
  46 0012 0FD8     		bhi	.L2
  47              		.loc 1 49 0 is_stmt 0 discriminator 1
  48 0014 5B68     		ldr	r3, [r3, #4]
  49 0016 6BB9     		cbnz	r3, .L2
  50              		.loc 1 49 0 discriminator 2
  51 0018 224B     		ldr	r3, .L7
  52 001a 9B68     		ldr	r3, [r3, #8]
  53 001c 53B9     		cbnz	r3, .L2
  50:arcadian.c    ****     {
  51:arcadian.c    ****         // Increase Red
  52:arcadian.c    ****         LED_RGB_Set(redIntense, 0, 255 - redIntense);
  54              		.loc 1 52 0 is_stmt 1
  55 001e C0B2     		uxtb	r0, r0
  56 0020 C243     		mvns	r2, r0
  57 0022 D2B2     		uxtb	r2, r2
  58 0024 0021     		movs	r1, #0
  59 0026 FFF7FEFF 		bl	LED_RGB_Set
  60              	.LVL1:
  53:arcadian.c    ****         redIntense++;
  61              		.loc 1 53 0
ARM GAS  C:\Users\DHEERA~1\AppData\Local\Temp\ccSpG7f5.s 			page 3


  62 002a 1E4A     		ldr	r2, .L7
  63 002c 1368     		ldr	r3, [r2]
  64 002e 0133     		adds	r3, r3, #1
  65 0030 1360     		str	r3, [r2]
  66 0032 34E0     		b	.L3
  67              	.L2:
  54:arcadian.c    ****     } 
  55:arcadian.c    ****     else if (redIntense == 255 && yellowIntense < 255 && greenIntense == 0)
  68              		.loc 1 55 0
  69 0034 FF28     		cmp	r0, #255
  70 0036 15D1     		bne	.L4
  71              		.loc 1 55 0 is_stmt 0 discriminator 1
  72 0038 1A4B     		ldr	r3, .L7
  73 003a 5968     		ldr	r1, [r3, #4]
  74 003c FE29     		cmp	r1, #254
  75 003e 11D8     		bhi	.L4
  76              		.loc 1 55 0 discriminator 2
  77 0040 9B68     		ldr	r3, [r3, #8]
  78 0042 7BB9     		cbnz	r3, .L4
  56:arcadian.c    ****     {
  57:arcadian.c    ****         // Decrease Red, Increase Yellow
  58:arcadian.c    ****         LED_RGB_Set(255 - yellowIntense, yellowIntense, 0);
  79              		.loc 1 58 0 is_stmt 1
  80 0044 C9B2     		uxtb	r1, r1
  81 0046 C843     		mvns	r0, r1
  82 0048 0022     		movs	r2, #0
  83 004a C0B2     		uxtb	r0, r0
  84 004c FFF7FEFF 		bl	LED_RGB_Set
  85              	.LVL2:
  59:arcadian.c    ****         yellowIntense++;
  86              		.loc 1 59 0
  87 0050 144A     		ldr	r2, .L7
  88 0052 5368     		ldr	r3, [r2, #4]
  89 0054 0133     		adds	r3, r3, #1
  90 0056 5360     		str	r3, [r2, #4]
  60:arcadian.c    ****         
  61:arcadian.c    ****         if(yellowIntense == 255)
  91              		.loc 1 61 0
  92 0058 FF2B     		cmp	r3, #255
  93 005a 20D1     		bne	.L3
  62:arcadian.c    ****         {
  63:arcadian.c    ****             redIntense = 0;
  94              		.loc 1 63 0
  95 005c 0022     		movs	r2, #0
  96 005e 114B     		ldr	r3, .L7
  97 0060 1A60     		str	r2, [r3]
  98 0062 1CE0     		b	.L3
  99              	.L4:
  64:arcadian.c    ****         }
  65:arcadian.c    ****     }
  66:arcadian.c    ****     else if(redIntense == 0 && yellowIntense == 255 && greenIntense < 255)
 100              		.loc 1 66 0
 101 0064 B0B9     		cbnz	r0, .L5
 102              		.loc 1 66 0 is_stmt 0 discriminator 1
 103 0066 0F4B     		ldr	r3, .L7
 104 0068 5B68     		ldr	r3, [r3, #4]
 105 006a FF2B     		cmp	r3, #255
ARM GAS  C:\Users\DHEERA~1\AppData\Local\Temp\ccSpG7f5.s 			page 4


 106 006c 12D1     		bne	.L5
 107              		.loc 1 66 0 discriminator 2
 108 006e 0D4B     		ldr	r3, .L7
 109 0070 9A68     		ldr	r2, [r3, #8]
 110 0072 FE2A     		cmp	r2, #254
 111 0074 0ED8     		bhi	.L5
  67:arcadian.c    ****     {
  68:arcadian.c    ****         // Decrease yellow, Increase Green
  69:arcadian.c    ****         LED_RGB_Set(0, 255 - greenIntense, greenIntense);
 112              		.loc 1 69 0 is_stmt 1
 113 0076 D2B2     		uxtb	r2, r2
 114 0078 D143     		mvns	r1, r2
 115 007a C9B2     		uxtb	r1, r1
 116 007c FFF7FEFF 		bl	LED_RGB_Set
 117              	.LVL3:
  70:arcadian.c    ****         greenIntense++;
 118              		.loc 1 70 0
 119 0080 084A     		ldr	r2, .L7
 120 0082 9368     		ldr	r3, [r2, #8]
 121 0084 0133     		adds	r3, r3, #1
 122 0086 9360     		str	r3, [r2, #8]
  71:arcadian.c    ****         
  72:arcadian.c    ****         if(greenIntense == 255)
 123              		.loc 1 72 0
 124 0088 FF2B     		cmp	r3, #255
 125 008a 08D1     		bne	.L3
  73:arcadian.c    ****         {
  74:arcadian.c    ****             yellowIntense = 0;
 126              		.loc 1 74 0
 127 008c 0022     		movs	r2, #0
 128 008e 054B     		ldr	r3, .L7
 129 0090 5A60     		str	r2, [r3, #4]
 130 0092 04E0     		b	.L3
 131              	.L5:
  75:arcadian.c    ****         }
  76:arcadian.c    ****     }
  77:arcadian.c    ****     else
  78:arcadian.c    ****     {
  79:arcadian.c    ****         // Reset intensities
  80:arcadian.c    ****         redIntense = 0;
 132              		.loc 1 80 0
 133 0094 034B     		ldr	r3, .L7
 134 0096 0022     		movs	r2, #0
 135 0098 1A60     		str	r2, [r3]
  81:arcadian.c    ****         yellowIntense = 0;
 136              		.loc 1 81 0
 137 009a 5A60     		str	r2, [r3, #4]
  82:arcadian.c    ****         greenIntense = 0;
 138              		.loc 1 82 0
 139 009c 9A60     		str	r2, [r3, #8]
 140              	.L3:
  83:arcadian.c    ****     }
  84:arcadian.c    ****     
  85:arcadian.c    ****     return RC_SUCCESS;
  86:arcadian.c    **** }
 141              		.loc 1 86 0
 142 009e 0020     		movs	r0, #0
ARM GAS  C:\Users\DHEERA~1\AppData\Local\Temp\ccSpG7f5.s 			page 5


 143 00a0 08BD     		pop	{r3, pc}
 144              	.L8:
 145 00a2 00BF     		.align	2
 146              	.L7:
 147 00a4 00000000 		.word	.LANCHOR0
 148              		.cfi_endproc
 149              	.LFE110:
 150              		.size	fader_Effect, .-fader_Effect
 151              		.section	.text.glower_Effect,"ax",%progbits
 152              		.align	2
 153              		.global	glower_Effect
 154              		.thumb
 155              		.thumb_func
 156              		.type	glower_Effect, %function
 157              	glower_Effect:
 158              	.LFB111:
  87:arcadian.c    **** 
  88:arcadian.c    **** /**
  89:arcadian.c    **** * Function to glow and cycle through the RGB LED
  90:arcadian.c    **** * @param none 
  91:arcadian.c    **** * @return RC_SUCCESS if ok
  92:arcadian.c    **** */
  93:arcadian.c    **** RC_t glower_Effect()
  94:arcadian.c    **** {
 159              		.loc 1 94 0
 160              		.cfi_startproc
 161              		@ args = 0, pretend = 0, frame = 0
 162              		@ frame_needed = 0, uses_anonymous_args = 0
 163 0000 38B5     		push	{r3, r4, r5, lr}
 164              		.cfi_def_cfa_offset 16
 165              		.cfi_offset 3, -16
 166              		.cfi_offset 4, -12
 167              		.cfi_offset 5, -8
 168              		.cfi_offset 14, -4
  95:arcadian.c    ****     static int i = 0;
  96:arcadian.c    ****     
  97:arcadian.c    ****     if(i < 9)
 169              		.loc 1 97 0
 170 0002 174B     		ldr	r3, .L13
 171 0004 DB68     		ldr	r3, [r3, #12]
 172 0006 082B     		cmp	r3, #8
 173 0008 25DC     		bgt	.L10
  98:arcadian.c    ****     {
  99:arcadian.c    ****         SetRelAlarm(alrm_glower,10, RG_glow_table[i].duration);
 174              		.loc 1 99 0
 175 000a 164D     		ldr	r5, .L13+4
 176 000c 03EB4303 		add	r3, r3, r3, lsl #1
 177 0010 5A00     		lsls	r2, r3, #1
 178 0012 2A44     		add	r2, r2, r5
 179 0014 9288     		ldrh	r2, [r2, #4]
 180 0016 0A21     		movs	r1, #10
 181 0018 0320     		movs	r0, #3
 182 001a FFF7FEFF 		bl	EE_oo_SetRelAlarm
 183              	.LVL4:
 100:arcadian.c    ****         RGB_PWM_red_WriteCompare(RG_glow_table[i].red_rgb);
 184              		.loc 1 100 0
 185 001e 104C     		ldr	r4, .L13
ARM GAS  C:\Users\DHEERA~1\AppData\Local\Temp\ccSpG7f5.s 			page 6


 186 0020 E368     		ldr	r3, [r4, #12]
 187 0022 03EB4303 		add	r3, r3, r3, lsl #1
 188 0026 5A00     		lsls	r2, r3, #1
 189 0028 A85C     		ldrb	r0, [r5, r2]	@ zero_extendqisi2
 190 002a FFF7FEFF 		bl	RGB_PWM_red_WriteCompare
 191              	.LVL5:
 101:arcadian.c    ****         RGB_PWM_green_WriteCompare(RG_glow_table[i].green_rgb);
 192              		.loc 1 101 0
 193 002e E368     		ldr	r3, [r4, #12]
 194 0030 03EB4303 		add	r3, r3, r3, lsl #1
 195 0034 5A00     		lsls	r2, r3, #1
 196 0036 2A44     		add	r2, r2, r5
 197 0038 5078     		ldrb	r0, [r2, #1]	@ zero_extendqisi2
 198 003a FFF7FEFF 		bl	RGB_PWM_green_WriteCompare
 199              	.LVL6:
 102:arcadian.c    ****         RGB_PWM_blue_WriteCompare(RG_glow_table[i].blue_rgb);
 200              		.loc 1 102 0
 201 003e E368     		ldr	r3, [r4, #12]
 202 0040 03EB4303 		add	r3, r3, r3, lsl #1
 203 0044 5A00     		lsls	r2, r3, #1
 204 0046 1544     		add	r5, r5, r2
 205 0048 A878     		ldrb	r0, [r5, #2]	@ zero_extendqisi2
 206 004a FFF7FEFF 		bl	RGB_PWM_blue_WriteCompare
 207              	.LVL7:
 103:arcadian.c    ****         i++;
 208              		.loc 1 103 0
 209 004e E368     		ldr	r3, [r4, #12]
 210 0050 0133     		adds	r3, r3, #1
 211 0052 E360     		str	r3, [r4, #12]
 212 0054 02E0     		b	.L11
 213              	.L10:
 104:arcadian.c    ****     }
 105:arcadian.c    ****     else
 106:arcadian.c    ****     {
 107:arcadian.c    ****         i = 0;
 214              		.loc 1 107 0
 215 0056 0022     		movs	r2, #0
 216 0058 014B     		ldr	r3, .L13
 217 005a DA60     		str	r2, [r3, #12]
 218              	.L11:
 108:arcadian.c    ****     }
 109:arcadian.c    ****     
 110:arcadian.c    ****     return RC_SUCCESS;
 111:arcadian.c    **** }
 219              		.loc 1 111 0
 220 005c 0020     		movs	r0, #0
 221 005e 38BD     		pop	{r3, r4, r5, pc}
 222              	.L14:
 223              		.align	2
 224              	.L13:
 225 0060 00000000 		.word	.LANCHOR0
 226 0064 00000000 		.word	.LANCHOR1
 227              		.cfi_endproc
 228              	.LFE111:
 229              		.size	glower_Effect, .-glower_Effect
 230              		.section	.text.Functsk_fader,"ax",%progbits
 231              		.align	2
ARM GAS  C:\Users\DHEERA~1\AppData\Local\Temp\ccSpG7f5.s 			page 7


 232              		.global	Functsk_fader
 233              		.thumb
 234              		.thumb_func
 235              		.type	Functsk_fader, %function
 236              	Functsk_fader:
 237              	.LFB112:
 112:arcadian.c    **** 
 113:arcadian.c    **** // StartFader TASK starts the fader sequence
 114:arcadian.c    **** TASK(tsk_fader)
 115:arcadian.c    **** {
 238              		.loc 1 115 0
 239              		.cfi_startproc
 240              		@ args = 0, pretend = 0, frame = 0
 241              		@ frame_needed = 0, uses_anonymous_args = 0
 242 0000 08B5     		push	{r3, lr}
 243              		.cfi_def_cfa_offset 8
 244              		.cfi_offset 3, -8
 245              		.cfi_offset 14, -4
 116:arcadian.c    ****    fader_Effect();
 246              		.loc 1 116 0
 247 0002 FFF7FEFF 		bl	fader_Effect
 248              	.LVL8:
 117:arcadian.c    ****    TerminateTask();
 249              		.loc 1 117 0
 250 0006 FFF7FEFF 		bl	EE_oo_TerminateTask
 251              	.LVL9:
 252 000a 08BD     		pop	{r3, pc}
 253              		.cfi_endproc
 254              	.LFE112:
 255              		.size	Functsk_fader, .-Functsk_fader
 256              		.section	.text.Functsk_glower,"ax",%progbits
 257              		.align	2
 258              		.global	Functsk_glower
 259              		.thumb
 260              		.thumb_func
 261              		.type	Functsk_glower, %function
 262              	Functsk_glower:
 263              	.LFB113:
 118:arcadian.c    **** }
 119:arcadian.c    **** 
 120:arcadian.c    **** // StartGlower TASK starts the glower sequence
 121:arcadian.c    **** TASK(tsk_glower)
 122:arcadian.c    **** {
 264              		.loc 1 122 0
 265              		.cfi_startproc
 266              		@ args = 0, pretend = 0, frame = 0
 267              		@ frame_needed = 0, uses_anonymous_args = 0
 268 0000 08B5     		push	{r3, lr}
 269              		.cfi_def_cfa_offset 8
 270              		.cfi_offset 3, -8
 271              		.cfi_offset 14, -4
 123:arcadian.c    ****    glower_Effect();
 272              		.loc 1 123 0
 273 0002 FFF7FEFF 		bl	glower_Effect
 274              	.LVL10:
 124:arcadian.c    ****    TerminateTask();
 275              		.loc 1 124 0
ARM GAS  C:\Users\DHEERA~1\AppData\Local\Temp\ccSpG7f5.s 			page 8


 276 0006 FFF7FEFF 		bl	EE_oo_TerminateTask
 277              	.LVL11:
 278 000a 08BD     		pop	{r3, pc}
 279              		.cfi_endproc
 280              	.LFE113:
 281              		.size	Functsk_glower, .-Functsk_glower
 282              		.global	RG_glow_table
 283              		.section	.rodata
 284              		.align	2
 285              		.set	.LANCHOR1,. + 0
 286              		.type	RG_glow_table, %object
 287              		.size	RG_glow_table, 54
 288              	RG_glow_table:
 289 0000 FF       		.byte	-1
 290 0001 00       		.byte	0
 291 0002 00       		.byte	0
 292 0003 00       		.space	1
 293 0004 F401     		.short	500
 294 0006 00       		.byte	0
 295 0007 FF       		.byte	-1
 296 0008 00       		.byte	0
 297 0009 00       		.space	1
 298 000a F401     		.short	500
 299 000c 00       		.byte	0
 300 000d 00       		.byte	0
 301 000e FF       		.byte	-1
 302 000f 00       		.space	1
 303 0010 F401     		.short	500
 304 0012 00       		.byte	0
 305 0013 00       		.byte	0
 306 0014 00       		.byte	0
 307 0015 00       		.space	1
 308 0016 6400     		.short	100
 309 0018 FF       		.byte	-1
 310 0019 FF       		.byte	-1
 311 001a FF       		.byte	-1
 312 001b 00       		.space	1
 313 001c 6400     		.short	100
 314 001e 00       		.byte	0
 315 001f 00       		.byte	0
 316 0020 00       		.byte	0
 317 0021 00       		.space	1
 318 0022 6400     		.short	100
 319 0024 FF       		.byte	-1
 320 0025 FF       		.byte	-1
 321 0026 FF       		.byte	-1
 322 0027 00       		.space	1
 323 0028 6400     		.short	100
 324 002a 00       		.byte	0
 325 002b 00       		.byte	0
 326 002c 00       		.byte	0
 327 002d 00       		.space	1
 328 002e 6400     		.short	100
 329 0030 FF       		.byte	-1
 330 0031 FF       		.byte	-1
 331 0032 FF       		.byte	-1
 332 0033 00       		.space	1
ARM GAS  C:\Users\DHEERA~1\AppData\Local\Temp\ccSpG7f5.s 			page 9


 333 0034 6400     		.short	100
 334              		.bss
 335              		.align	2
 336              		.set	.LANCHOR0,. + 0
 337              		.type	redIntense.6713, %object
 338              		.size	redIntense.6713, 4
 339              	redIntense.6713:
 340 0000 00000000 		.space	4
 341              		.type	yellowIntense.6714, %object
 342              		.size	yellowIntense.6714, 4
 343              	yellowIntense.6714:
 344 0004 00000000 		.space	4
 345              		.type	greenIntense.6715, %object
 346              		.size	greenIntense.6715, 4
 347              	greenIntense.6715:
 348 0008 00000000 		.space	4
 349              		.type	i.6718, %object
 350              		.size	i.6718, 4
 351              	i.6718:
 352 000c 00000000 		.space	4
 353              		.text
 354              	.Letext0:
 355              		.file 2 "d:\\psoc creator\\4.4\\psoc creator\\import\\gnu\\arm\\5.4.1\\arm-none-eabi\\include\\mac
 356              		.file 3 "d:\\psoc creator\\4.4\\psoc creator\\import\\gnu\\arm\\5.4.1\\arm-none-eabi\\include\\sys
 357              		.file 4 "Generated_Source\\PSoC5/Erika_OS_common_ee_types.inc"
 358              		.file 5 "Generated_Source\\PSoC5/Erika_OS_cortex_mx_ee_cpu.inc"
 359              		.file 6 ".\\source\\bsw/global.h"
 360              		.file 7 "arcadian.h"
 361              		.file 8 "Generated_Source\\PSoC5/Erika_OS_ee_oo_intfunc.inc"
 362              		.file 9 "Generated_Source\\PSoC5/Erika_OS_cortex_mx_ee_context.inc"
 363              		.file 10 "Generated_Source\\PSoC5/Erika_OS_common_ee_primitives.inc"
 364              		.file 11 "Generated_Source\\PSoC5/core_cm3.h"
 365              		.file 12 "Generated_Source\\PSoC5/Erika_OS_ee_oo_kernel.inc"
 366              		.file 13 ".\\source\\bsw/led.h"
 367              		.file 14 "Generated_Source\\PSoC5/RGB_PWM_red.h"
 368              		.file 15 "Generated_Source\\PSoC5/RGB_PWM_green.h"
 369              		.file 16 "Generated_Source\\PSoC5/RGB_PWM_blue.h"