ARM GAS  C:\Users\DHEERA~1\AppData\Local\Temp\cckyz0xa.s 			page 1


   1              		.syntax unified
   2              		.cpu cortex-m3
   3              		.fpu softvfp
   4              		.eabi_attribute 20, 1
   5              		.eabi_attribute 21, 1
   6              		.eabi_attribute 23, 3
   7              		.eabi_attribute 24, 1
   8              		.eabi_attribute 25, 1
   9              		.eabi_attribute 26, 1
  10              		.eabi_attribute 30, 1
  11              		.eabi_attribute 34, 1
  12              		.eabi_attribute 18, 4
  13              		.thumb
  14              		.syntax unified
  15              		.file	"button.c"
  16              		.text
  17              	.Ltext0:
  18              		.cfi_sections	.debug_frame
  19              		.section	.text.BUTTON_Init,"ax",%progbits
  20              		.align	2
  21              		.global	BUTTON_Init
  22              		.thumb
  23              		.thumb_func
  24              		.type	BUTTON_Init, %function
  25              	BUTTON_Init:
  26              	.LFB110:
  27              		.file 1 "source\\bsw\\button.c"
   1:source\bsw/button.c **** /**
   2:source\bsw/button.c **** * \file button.c
   3:source\bsw/button.c **** * \author P. Fromm
   4:source\bsw/button.c **** * \date 29.7.17
   5:source\bsw/button.c **** *
   6:source\bsw/button.c **** * \brief Simple button driver
   7:source\bsw/button.c **** *
   8:source\bsw/button.c **** * \copyright Copyright ©2016
   9:source\bsw/button.c **** * Department of electrical engineering and information technology, Hochschule Darmstadt - Universit
  10:source\bsw/button.c **** * Permission to use, copy, modify, and distribute this software and its documentation for education
  11:source\bsw/button.c **** * (unless permitted by h_da) and official h_da projects, is hereby granted for enrolled students of
  12:source\bsw/button.c **** * this paragraph and the following paragraph appear in all copies, modifications, and distributions
  13:source\bsw/button.c **** * Contact Prof.Dr.-Ing. Peter Fromm, peter.fromm@h-da.de, Birkenweg 8 64295 Darmstadt - GERMANY for
  14:source\bsw/button.c **** *
  15:source\bsw/button.c **** * \warning This software is a PROTOTYPE version and is not designed or intended for use in producti
  16:source\bsw/button.c **** * The user represents and warrants that it will NOT use or redistribute the Software for such purpo
  17:source\bsw/button.c **** * This prototype is for research purposes only. This software is provided "AS IS," without a warran
  18:source\bsw/button.c **** */
  19:source\bsw/button.c **** 
  20:source\bsw/button.c **** /*****************************************************************************/
  21:source\bsw/button.c **** /* Include files                                                             */
  22:source\bsw/button.c **** /*****************************************************************************/
  23:source\bsw/button.c **** #include "project.h"
  24:source\bsw/button.c **** #include "button.h"
  25:source\bsw/button.c **** 
  26:source\bsw/button.c **** #include "button_1.h"
  27:source\bsw/button.c **** #include "button_2.h"
  28:source\bsw/button.c **** //#include "button_3.h"
  29:source\bsw/button.c **** //#include "button_4.h"
  30:source\bsw/button.c **** 
ARM GAS  C:\Users\DHEERA~1\AppData\Local\Temp\cckyz0xa.s 			page 2


  31:source\bsw/button.c **** 
  32:source\bsw/button.c **** /*****************************************************************************/
  33:source\bsw/button.c **** /* Local pre-processor symbols/macros ('#define')                            */
  34:source\bsw/button.c **** /*****************************************************************************/
  35:source\bsw/button.c **** 
  36:source\bsw/button.c **** /*****************************************************************************/
  37:source\bsw/button.c **** /* Global variable definitions (declared in header file with 'extern')       */
  38:source\bsw/button.c **** /*****************************************************************************/
  39:source\bsw/button.c **** 
  40:source\bsw/button.c **** /*****************************************************************************/
  41:source\bsw/button.c **** /* Local type definitions ('typedef')                                        */
  42:source\bsw/button.c **** /*****************************************************************************/
  43:source\bsw/button.c **** 
  44:source\bsw/button.c **** /*****************************************************************************/
  45:source\bsw/button.c **** /* Local variable definitions ('static')                                     */
  46:source\bsw/button.c **** /*****************************************************************************/
  47:source\bsw/button.c **** 
  48:source\bsw/button.c **** 
  49:source\bsw/button.c **** 
  50:source\bsw/button.c **** /*****************************************************************************/
  51:source\bsw/button.c **** /* Local function prototypes ('static')                                      */
  52:source\bsw/button.c **** /*****************************************************************************/
  53:source\bsw/button.c **** 
  54:source\bsw/button.c **** 
  55:source\bsw/button.c **** /*****************************************************************************/
  56:source\bsw/button.c **** /* Function implementation - global ('extern') and local ('static')          */
  57:source\bsw/button.c **** /*****************************************************************************/
  58:source\bsw/button.c **** 
  59:source\bsw/button.c **** /**
  60:source\bsw/button.c ****  * Initialize Button
  61:source\bsw/button.c ****  * @return RC_SUCCESS if ok
  62:source\bsw/button.c ****  */
  63:source\bsw/button.c **** RC_t BUTTON_Init(cyisraddress address)
  64:source\bsw/button.c **** {
  28              		.loc 1 64 0
  29              		.cfi_startproc
  30              		@ args = 0, pretend = 0, frame = 0
  31              		@ frame_needed = 0, uses_anonymous_args = 0
  32              	.LVL0:
  65:source\bsw/button.c ****  
  66:source\bsw/button.c ****     if (address != 0)
  33              		.loc 1 66 0
  34 0000 20B1     		cbz	r0, .L4
  64:source\bsw/button.c ****  
  35              		.loc 1 64 0
  36 0002 08B5     		push	{r3, lr}
  37              		.cfi_def_cfa_offset 8
  38              		.cfi_offset 3, -8
  39              		.cfi_offset 14, -4
  67:source\bsw/button.c ****     {
  68:source\bsw/button.c ****         isr_Button_StartEx(address);
  40              		.loc 1 68 0
  41 0004 FFF7FEFF 		bl	isr_Button_StartEx
  42              	.LVL1:
  69:source\bsw/button.c ****     }
  70:source\bsw/button.c ****     
  71:source\bsw/button.c ****     return RC_SUCCESS;
ARM GAS  C:\Users\DHEERA~1\AppData\Local\Temp\cckyz0xa.s 			page 3


  72:source\bsw/button.c **** }
  43              		.loc 1 72 0
  44 0008 0020     		movs	r0, #0
  45 000a 08BD     		pop	{r3, pc}
  46              	.LVL2:
  47              	.L4:
  48              		.cfi_def_cfa_offset 0
  49              		.cfi_restore 3
  50              		.cfi_restore 14
  51 000c 0020     		movs	r0, #0
  52              	.LVL3:
  53 000e 7047     		bx	lr
  54              		.cfi_endproc
  55              	.LFE110:
  56              		.size	BUTTON_Init, .-BUTTON_Init
  57              		.section	.text.BUTTON_IsPressed,"ax",%progbits
  58              		.align	2
  59              		.global	BUTTON_IsPressed
  60              		.thumb
  61              		.thumb_func
  62              		.type	BUTTON_IsPressed, %function
  63              	BUTTON_IsPressed:
  64              	.LFB111:
  73:source\bsw/button.c **** 
  74:source\bsw/button.c **** /**
  75:source\bsw/button.c ****  * Initialize Button
  76:source\bsw/button.c ****  * @param BUTTON_id_t button - check if the corresponding button is pressed
  77:source\bsw/button.c ****  * @return TRUE if button is pressed
  78:source\bsw/button.c ****  */
  79:source\bsw/button.c **** boolean_t BUTTON_IsPressed(BUTTON_id_t button)
  80:source\bsw/button.c **** {
  65              		.loc 1 80 0
  66              		.cfi_startproc
  67              		@ args = 0, pretend = 0, frame = 0
  68              		@ frame_needed = 0, uses_anonymous_args = 0
  69              	.LVL4:
  70 0000 08B5     		push	{r3, lr}
  71              		.cfi_def_cfa_offset 8
  72              		.cfi_offset 3, -8
  73              		.cfi_offset 14, -4
  74              	.LVL5:
  81:source\bsw/button.c ****     boolean_t result = FALSE;
  82:source\bsw/button.c ****     
  83:source\bsw/button.c ****     switch (button)
  75              		.loc 1 83 0
  76 0002 0328     		cmp	r0, #3
  77 0004 1BD8     		bhi	.L12
  78 0006 DFE800F0 		tbb	[pc, r0]
  79              	.L8:
  80 000a 02       		.byte	(.L7-.L8)/2
  81 000b 08       		.byte	(.L9-.L8)/2
  82 000c 0E       		.byte	(.L10-.L8)/2
  83 000d 14       		.byte	(.L11-.L8)/2
  84              		.p2align 1
  85              	.L7:
  86              	.LBB2:
  84:source\bsw/button.c ****     {
ARM GAS  C:\Users\DHEERA~1\AppData\Local\Temp\cckyz0xa.s 			page 4


  85:source\bsw/button.c ****         case BUTTON_1 : if (BUTTON_1_Read() == 1) result = TRUE; break;
  87              		.loc 1 85 0
  88 000e FFF7FEFF 		bl	BUTTON_1_Read
  89              	.LVL6:
  90 0012 0128     		cmp	r0, #1
  91 0014 15D0     		beq	.L13
  92              	.LBE2:
  81:source\bsw/button.c ****     boolean_t result = FALSE;
  93              		.loc 1 81 0
  94 0016 0020     		movs	r0, #0
  95 0018 08BD     		pop	{r3, pc}
  96              	.LVL7:
  97              	.L9:
  98              	.LBB3:
  86:source\bsw/button.c ****         case BUTTON_2 : if (BUTTON_2_Read() == 1) result = TRUE; break;
  99              		.loc 1 86 0
 100 001a FFF7FEFF 		bl	BUTTON_2_Read
 101              	.LVL8:
 102 001e 0128     		cmp	r0, #1
 103 0020 11D0     		beq	.L14
 104              	.LBE3:
  81:source\bsw/button.c ****     boolean_t result = FALSE;
 105              		.loc 1 81 0
 106 0022 0020     		movs	r0, #0
 107 0024 08BD     		pop	{r3, pc}
 108              	.LVL9:
 109              	.L10:
 110              	.LBB4:
  87:source\bsw/button.c ****         case BUTTON_3 : if (BUTTON_3_Read() == 1) result = TRUE; break;
 111              		.loc 1 87 0
 112 0026 FFF7FEFF 		bl	BUTTON_3_Read
 113              	.LVL10:
 114 002a 0128     		cmp	r0, #1
 115 002c 0DD0     		beq	.L15
 116              	.LBE4:
  81:source\bsw/button.c ****     
 117              		.loc 1 81 0
 118 002e 0020     		movs	r0, #0
 119 0030 08BD     		pop	{r3, pc}
 120              	.LVL11:
 121              	.L11:
 122              	.LBB5:
  88:source\bsw/button.c ****         case BUTTON_4 : if (BUTTON_4_Read() == 1) result = TRUE; break;
 123              		.loc 1 88 0
 124 0032 FFF7FEFF 		bl	BUTTON_4_Read
 125              	.LVL12:
 126 0036 0128     		cmp	r0, #1
 127 0038 09D0     		beq	.L16
 128              	.LBE5:
  81:source\bsw/button.c ****     
 129              		.loc 1 81 0
 130 003a 0020     		movs	r0, #0
 131 003c 08BD     		pop	{r3, pc}
 132              	.LVL13:
 133              	.L12:
 134 003e 0020     		movs	r0, #0
 135              	.LVL14:
ARM GAS  C:\Users\DHEERA~1\AppData\Local\Temp\cckyz0xa.s 			page 5


 136 0040 08BD     		pop	{r3, pc}
 137              	.L13:
 138              	.LBB6:
  85:source\bsw/button.c ****         case BUTTON_2 : if (BUTTON_2_Read() == 1) result = TRUE; break;
 139              		.loc 1 85 0
 140 0042 0120     		movs	r0, #1
 141 0044 08BD     		pop	{r3, pc}
 142              	.L14:
 143              	.LBE6:
 144              	.LBB7:
  86:source\bsw/button.c ****         case BUTTON_3 : if (BUTTON_3_Read() == 1) result = TRUE; break;
 145              		.loc 1 86 0
 146 0046 0120     		movs	r0, #1
 147 0048 08BD     		pop	{r3, pc}
 148              	.L15:
 149              	.LBE7:
 150              	.LBB8:
  87:source\bsw/button.c ****         case BUTTON_4 : if (BUTTON_4_Read() == 1) result = TRUE; break;
 151              		.loc 1 87 0
 152 004a 0120     		movs	r0, #1
 153 004c 08BD     		pop	{r3, pc}
 154              	.L16:
 155              	.LBE8:
 156              	.LBB9:
 157              		.loc 1 88 0
 158 004e 0120     		movs	r0, #1
 159              	.LVL15:
 160              	.LBE9:
  89:source\bsw/button.c ****     }
  90:source\bsw/button.c ****     
  91:source\bsw/button.c ****     return result;
  92:source\bsw/button.c **** }
 161              		.loc 1 92 0
 162 0050 08BD     		pop	{r3, pc}
 163              		.cfi_endproc
 164              	.LFE111:
 165              		.size	BUTTON_IsPressed, .-BUTTON_IsPressed
 166 0052 00BF     		.text
 167              	.Letext0:
 168              		.file 2 "d:\\psoc creator\\4.4\\psoc creator\\import\\gnu\\arm\\5.4.1\\arm-none-eabi\\include\\mac
 169              		.file 3 "d:\\psoc creator\\4.4\\psoc creator\\import\\gnu\\arm\\5.4.1\\arm-none-eabi\\include\\sys
 170              		.file 4 "Generated_Source\\PSoC5/cytypes.h"
 171              		.file 5 "Generated_Source\\PSoC5/ErikaOS_1_common_ee_types.inc"
 172              		.file 6 "Generated_Source\\PSoC5/ErikaOS_1_cortex_mx_ee_cpu.inc"
 173              		.file 7 "source\\bsw\\global.h"
 174              		.file 8 "source\\bsw\\button.h"
 175              		.file 9 "Generated_Source\\PSoC5/ErikaOS_1_ee_oo_intfunc.inc"
 176              		.file 10 "Generated_Source\\PSoC5/ErikaOS_1_cortex_mx_ee_context.inc"
 177              		.file 11 "Generated_Source\\PSoC5/ErikaOS_1_common_ee_primitives.inc"
 178              		.file 12 "Generated_Source\\PSoC5/core_cm3.h"
 179              		.file 13 "Generated_Source\\PSoC5/isr_Button.h"