ARM GAS  C:\Users\DHEERA~1\AppData\Local\Temp\ccbAcITh.s 			page 1


   1              		.syntax unified
   2              		.cpu cortex-m3
   3              		.fpu softvfp
   4              		.eabi_attribute 20, 1
   5              		.eabi_attribute 21, 1
   6              		.eabi_attribute 23, 3
   7              		.eabi_attribute 24, 1
   8              		.eabi_attribute 25, 1
   9              		.eabi_attribute 26, 1
  10              		.eabi_attribute 30, 1
  11              		.eabi_attribute 34, 1
  12              		.eabi_attribute 18, 4
  13              		.thumb
  14              		.syntax unified
  15              		.file	"main.c"
  16              		.text
  17              	.Ltext0:
  18              		.cfi_sections	.debug_frame
  19              		.section	.text.ISR2_systick_handler,"ax",%progbits
  20              		.align	2
  21              		.global	ISR2_systick_handler
  22              		.thumb
  23              		.thumb_func
  24              		.type	ISR2_systick_handler, %function
  25              	ISR2_systick_handler:
  26              	.LFB111:
  27              		.file 1 "main.c"
   1:main.c        **** /* ========================================
   2:main.c        ****  *
   3:main.c        ****  * Copyright YOUR COMPANY, THE YEAR
   4:main.c        ****  * All Rights Reserved
   5:main.c        ****  * UNPUBLISHED, LICENSED SOFTWARE.
   6:main.c        ****  *
   7:main.c        ****  * CONFIDENTIAL AND PROPRIETARY INFORMATION
   8:main.c        ****  * WHICH IS THE PROPERTY OF your company.
   9:main.c        ****  *
  10:main.c        ****  * ========================================
  11:main.c        **** */
  12:main.c        **** 
  13:main.c        **** #include "project.h"
  14:main.c        **** #include "global.h"
  15:main.c        **** #include "seven.h"
  16:main.c        **** #include "game.h"
  17:main.c        **** #include "arcadian.h"
  18:main.c        **** 
  19:main.c        **** // ISR which will increment the systick counter every ms
  20:main.c        **** ISR(systick_handler)
  21:main.c        **** {
  28              		.loc 1 21 0
  29              		.cfi_startproc
  30              		@ args = 0, pretend = 0, frame = 0
  31              		@ frame_needed = 0, uses_anonymous_args = 0
  32 0000 08B5     		push	{r3, lr}
  33              		.cfi_def_cfa_offset 8
  34              		.cfi_offset 3, -8
  35              		.cfi_offset 14, -4
  22:main.c        ****     timeCount++;
ARM GAS  C:\Users\DHEERA~1\AppData\Local\Temp\ccbAcITh.s 			page 2


  36              		.loc 1 22 0
  37 0002 044A     		ldr	r2, .L3
  38 0004 1368     		ldr	r3, [r2]
  39 0006 0133     		adds	r3, r3, #1
  40 0008 1360     		str	r3, [r2]
  23:main.c        ****     CounterTick(cnt_systick);
  41              		.loc 1 23 0
  42 000a 0020     		movs	r0, #0
  43 000c FFF7FEFF 		bl	EE_oo_IncrementCounter
  44              	.LVL0:
  45 0010 08BD     		pop	{r3, pc}
  46              	.L4:
  47 0012 00BF     		.align	2
  48              	.L3:
  49 0014 00000000 		.word	.LANCHOR0
  50              		.cfi_endproc
  51              	.LFE111:
  52              		.size	ISR2_systick_handler, .-ISR2_systick_handler
  53              		.section	.text.systick_handler,"ax",%progbits
  54              		.align	2
  55              		.global	systick_handler
  56              		.thumb
  57              		.thumb_func
  58              		.type	systick_handler, %function
  59              	systick_handler:
  60              	.LFB110:
  20:main.c        **** {
  61              		.loc 1 20 0
  62              		.cfi_startproc
  63              		@ Stack Align: May be called with mis-aligned SP.
  64              		@ args = 0, pretend = 0, frame = 0
  65              		@ frame_needed = 0, uses_anonymous_args = 0
  66 0000 6846     		mov	r0, sp
  67              		.cfi_register 13, 0
  68 0002 20F00701 		bic	r1, r0, #7
  69 0006 8D46     		mov	sp, r1
  70 0008 19B5     		push	{r0, r3, r4, lr}
  71              		.cfi_def_cfa_offset 16
  72              		.cfi_offset 13, -16
  73              		.cfi_offset 3, -12
  74              		.cfi_offset 4, -8
  75              		.cfi_offset 14, -4
  76              	.LVL1:
  77              	.LBB56:
  78              	.LBB57:
  79              		.file 2 "Generated_Source\\PSoC5/Erika_OS_cortex_mx_ee_cpu.inc"
   1:Generated_Source\PSoC5/Erika_OS_cortex_mx_ee_cpu.inc **** /* ###*B*###
   2:Generated_Source\PSoC5/Erika_OS_cortex_mx_ee_cpu.inc ****  * ERIKA Enterprise - a tiny RTOS for small microcontrollers
   3:Generated_Source\PSoC5/Erika_OS_cortex_mx_ee_cpu.inc ****  *
   4:Generated_Source\PSoC5/Erika_OS_cortex_mx_ee_cpu.inc ****  * Copyright (C) 2002-2011  Evidence Srl
   5:Generated_Source\PSoC5/Erika_OS_cortex_mx_ee_cpu.inc ****  *
   6:Generated_Source\PSoC5/Erika_OS_cortex_mx_ee_cpu.inc ****  * This file is part of ERIKA Enterprise.
   7:Generated_Source\PSoC5/Erika_OS_cortex_mx_ee_cpu.inc ****  *
   8:Generated_Source\PSoC5/Erika_OS_cortex_mx_ee_cpu.inc ****  * ERIKA Enterprise is free software; you can redistribute it
   9:Generated_Source\PSoC5/Erika_OS_cortex_mx_ee_cpu.inc ****  * and/or modify it under the terms of the GNU General Public License
  10:Generated_Source\PSoC5/Erika_OS_cortex_mx_ee_cpu.inc ****  * version 2 as published by the Free Software Foundation, 
  11:Generated_Source\PSoC5/Erika_OS_cortex_mx_ee_cpu.inc ****  * (with a special exception described below).
ARM GAS  C:\Users\DHEERA~1\AppData\Local\Temp\ccbAcITh.s 			page 3


  12:Generated_Source\PSoC5/Erika_OS_cortex_mx_ee_cpu.inc ****  *
  13:Generated_Source\PSoC5/Erika_OS_cortex_mx_ee_cpu.inc ****  * Linking this code statically or dynamically with other modules is
  14:Generated_Source\PSoC5/Erika_OS_cortex_mx_ee_cpu.inc ****  * making a combined work based on this code.  Thus, the terms and
  15:Generated_Source\PSoC5/Erika_OS_cortex_mx_ee_cpu.inc ****  * conditions of the GNU General Public License cover the whole
  16:Generated_Source\PSoC5/Erika_OS_cortex_mx_ee_cpu.inc ****  * combination.
  17:Generated_Source\PSoC5/Erika_OS_cortex_mx_ee_cpu.inc ****  *
  18:Generated_Source\PSoC5/Erika_OS_cortex_mx_ee_cpu.inc ****  * As a special exception, the copyright holders of this library give you
  19:Generated_Source\PSoC5/Erika_OS_cortex_mx_ee_cpu.inc ****  * permission to link this code with independent modules to produce an
  20:Generated_Source\PSoC5/Erika_OS_cortex_mx_ee_cpu.inc ****  * executable, regardless of the license terms of these independent
  21:Generated_Source\PSoC5/Erika_OS_cortex_mx_ee_cpu.inc ****  * modules, and to copy and distribute the resulting executable under
  22:Generated_Source\PSoC5/Erika_OS_cortex_mx_ee_cpu.inc ****  * terms of your choice, provided that you also meet, for each linked
  23:Generated_Source\PSoC5/Erika_OS_cortex_mx_ee_cpu.inc ****  * independent module, the terms and conditions of the license of that
  24:Generated_Source\PSoC5/Erika_OS_cortex_mx_ee_cpu.inc ****  * module.  An independent module is a module which is not derived from
  25:Generated_Source\PSoC5/Erika_OS_cortex_mx_ee_cpu.inc ****  * or based on this library.  If you modify this code, you may extend
  26:Generated_Source\PSoC5/Erika_OS_cortex_mx_ee_cpu.inc ****  * this exception to your version of the code, but you are not
  27:Generated_Source\PSoC5/Erika_OS_cortex_mx_ee_cpu.inc ****  * obligated to do so.  If you do not wish to do so, delete this
  28:Generated_Source\PSoC5/Erika_OS_cortex_mx_ee_cpu.inc ****  * exception statement from your version.
  29:Generated_Source\PSoC5/Erika_OS_cortex_mx_ee_cpu.inc ****  *
  30:Generated_Source\PSoC5/Erika_OS_cortex_mx_ee_cpu.inc ****  * ERIKA Enterprise is distributed in the hope that it will be
  31:Generated_Source\PSoC5/Erika_OS_cortex_mx_ee_cpu.inc ****  * useful, but WITHOUT ANY WARRANTY; without even the implied warranty
  32:Generated_Source\PSoC5/Erika_OS_cortex_mx_ee_cpu.inc ****  * of MERCHANTABILITY or FITNESS FOR A PARTICULAR PURPOSE.  See the
  33:Generated_Source\PSoC5/Erika_OS_cortex_mx_ee_cpu.inc ****  * GNU General Public License version 2 for more details.
  34:Generated_Source\PSoC5/Erika_OS_cortex_mx_ee_cpu.inc ****  *
  35:Generated_Source\PSoC5/Erika_OS_cortex_mx_ee_cpu.inc ****  * You should have received a copy of the GNU General Public License
  36:Generated_Source\PSoC5/Erika_OS_cortex_mx_ee_cpu.inc ****  * version 2 along with ERIKA Enterprise; if not, write to the
  37:Generated_Source\PSoC5/Erika_OS_cortex_mx_ee_cpu.inc ****  * Free Software Foundation, Inc., 51 Franklin Street, Fifth Floor,
  38:Generated_Source\PSoC5/Erika_OS_cortex_mx_ee_cpu.inc ****  * Boston, MA 02110-1301 USA.
  39:Generated_Source\PSoC5/Erika_OS_cortex_mx_ee_cpu.inc ****  * ###*E*### */
  40:Generated_Source\PSoC5/Erika_OS_cortex_mx_ee_cpu.inc **** 
  41:Generated_Source\PSoC5/Erika_OS_cortex_mx_ee_cpu.inc **** /** 
  42:Generated_Source\PSoC5/Erika_OS_cortex_mx_ee_cpu.inc **** 	@file ee_cpu.h
  43:Generated_Source\PSoC5/Erika_OS_cortex_mx_ee_cpu.inc **** 	@brief CPU-dependent part of HAL. Derived from pkg/cpu/pic30/inc/ee_cpu.h
  44:Generated_Source\PSoC5/Erika_OS_cortex_mx_ee_cpu.inc **** 	@author Gianluca Franchino
  45:Generated_Source\PSoC5/Erika_OS_cortex_mx_ee_cpu.inc **** 	@author Giuseppe Serano
  46:Generated_Source\PSoC5/Erika_OS_cortex_mx_ee_cpu.inc **** 	@date 2011
  47:Generated_Source\PSoC5/Erika_OS_cortex_mx_ee_cpu.inc **** */ 
  48:Generated_Source\PSoC5/Erika_OS_cortex_mx_ee_cpu.inc ****     
  49:Generated_Source\PSoC5/Erika_OS_cortex_mx_ee_cpu.inc **** /*
  50:Generated_Source\PSoC5/Erika_OS_cortex_mx_ee_cpu.inc ****  * PSoC Port and API Generation
  51:Generated_Source\PSoC5/Erika_OS_cortex_mx_ee_cpu.inc ****  * Carlos Fernando Meier Martinez
  52:Generated_Source\PSoC5/Erika_OS_cortex_mx_ee_cpu.inc ****  * Hochschule Darmstadt, Germany. 2017.
  53:Generated_Source\PSoC5/Erika_OS_cortex_mx_ee_cpu.inc ****  */
  54:Generated_Source\PSoC5/Erika_OS_cortex_mx_ee_cpu.inc **** 
  55:Generated_Source\PSoC5/Erika_OS_cortex_mx_ee_cpu.inc **** #ifndef __INCLUDE_CORTEX_MX_EE_CPU_H__
  56:Generated_Source\PSoC5/Erika_OS_cortex_mx_ee_cpu.inc **** #define __INCLUDE_CORTEX_MX_EE_CPU_H__
  57:Generated_Source\PSoC5/Erika_OS_cortex_mx_ee_cpu.inc **** 
  58:Generated_Source\PSoC5/Erika_OS_cortex_mx_ee_cpu.inc **** #include "Erika_OS_eecfg.inc"
  59:Generated_Source\PSoC5/Erika_OS_cortex_mx_ee_cpu.inc **** 
  60:Generated_Source\PSoC5/Erika_OS_cortex_mx_ee_cpu.inc **** 
  61:Generated_Source\PSoC5/Erika_OS_cortex_mx_ee_cpu.inc **** #ifdef __GNU__
  62:Generated_Source\PSoC5/Erika_OS_cortex_mx_ee_cpu.inc **** #include "Erika_OS_common_ee_compiler_gcc.inc"
  63:Generated_Source\PSoC5/Erika_OS_cortex_mx_ee_cpu.inc **** #endif
  64:Generated_Source\PSoC5/Erika_OS_cortex_mx_ee_cpu.inc **** 
  65:Generated_Source\PSoC5/Erika_OS_cortex_mx_ee_cpu.inc **** /* Initial stack offset (in words): Used in multistack. */
  66:Generated_Source\PSoC5/Erika_OS_cortex_mx_ee_cpu.inc **** #ifndef CORTEX_MX_INIT_TOS_OFFSET
  67:Generated_Source\PSoC5/Erika_OS_cortex_mx_ee_cpu.inc **** #define CORTEX_MX_INIT_TOS_OFFSET 10
  68:Generated_Source\PSoC5/Erika_OS_cortex_mx_ee_cpu.inc **** #endif
ARM GAS  C:\Users\DHEERA~1\AppData\Local\Temp\ccbAcITh.s 			page 4


  69:Generated_Source\PSoC5/Erika_OS_cortex_mx_ee_cpu.inc **** 
  70:Generated_Source\PSoC5/Erika_OS_cortex_mx_ee_cpu.inc **** /*************************************************************************
  71:Generated_Source\PSoC5/Erika_OS_cortex_mx_ee_cpu.inc ****  HAL Types and structures
  72:Generated_Source\PSoC5/Erika_OS_cortex_mx_ee_cpu.inc ****  *************************************************************************/
  73:Generated_Source\PSoC5/Erika_OS_cortex_mx_ee_cpu.inc **** 
  74:Generated_Source\PSoC5/Erika_OS_cortex_mx_ee_cpu.inc **** /* Primitive data types */
  75:Generated_Source\PSoC5/Erika_OS_cortex_mx_ee_cpu.inc **** #include "Erika_OS_common_ee_types.inc"
  76:Generated_Source\PSoC5/Erika_OS_cortex_mx_ee_cpu.inc **** 
  77:Generated_Source\PSoC5/Erika_OS_cortex_mx_ee_cpu.inc **** typedef EE_UINT32 EE_UREG;
  78:Generated_Source\PSoC5/Erika_OS_cortex_mx_ee_cpu.inc **** typedef EE_INT32  EE_SREG;
  79:Generated_Source\PSoC5/Erika_OS_cortex_mx_ee_cpu.inc **** typedef EE_UINT32 EE_FREG;
  80:Generated_Source\PSoC5/Erika_OS_cortex_mx_ee_cpu.inc **** #define EE_UREG_SIZE 4
  81:Generated_Source\PSoC5/Erika_OS_cortex_mx_ee_cpu.inc **** 
  82:Generated_Source\PSoC5/Erika_OS_cortex_mx_ee_cpu.inc **** /* boolean type */
  83:Generated_Source\PSoC5/Erika_OS_cortex_mx_ee_cpu.inc **** #ifndef EE_TYPEBOOL
  84:Generated_Source\PSoC5/Erika_OS_cortex_mx_ee_cpu.inc **** typedef EE_UREG EE_TYPEBOOL;
  85:Generated_Source\PSoC5/Erika_OS_cortex_mx_ee_cpu.inc **** #endif
  86:Generated_Source\PSoC5/Erika_OS_cortex_mx_ee_cpu.inc **** 
  87:Generated_Source\PSoC5/Erika_OS_cortex_mx_ee_cpu.inc **** /* boolean true define */
  88:Generated_Source\PSoC5/Erika_OS_cortex_mx_ee_cpu.inc **** #ifndef EE_TRUE
  89:Generated_Source\PSoC5/Erika_OS_cortex_mx_ee_cpu.inc **** #define EE_TRUE ((EE_TYPEBOOL)1U)
  90:Generated_Source\PSoC5/Erika_OS_cortex_mx_ee_cpu.inc **** #endif
  91:Generated_Source\PSoC5/Erika_OS_cortex_mx_ee_cpu.inc **** 
  92:Generated_Source\PSoC5/Erika_OS_cortex_mx_ee_cpu.inc **** /* boolean false define */
  93:Generated_Source\PSoC5/Erika_OS_cortex_mx_ee_cpu.inc **** #ifndef EE_FALSE
  94:Generated_Source\PSoC5/Erika_OS_cortex_mx_ee_cpu.inc **** #define EE_FALSE ((EE_TYPEBOOL)0U)
  95:Generated_Source\PSoC5/Erika_OS_cortex_mx_ee_cpu.inc **** #endif
  96:Generated_Source\PSoC5/Erika_OS_cortex_mx_ee_cpu.inc **** 
  97:Generated_Source\PSoC5/Erika_OS_cortex_mx_ee_cpu.inc **** #define	EE_HWREG_PTR		volatile EE_UREG *
  98:Generated_Source\PSoC5/Erika_OS_cortex_mx_ee_cpu.inc **** #define	EE_HWREG_ADDR(x)	((EE_HWREG_PTR)(x))
  99:Generated_Source\PSoC5/Erika_OS_cortex_mx_ee_cpu.inc **** #define	EE_HWREG(x)		(*EE_HWREG_ADDR(x))
 100:Generated_Source\PSoC5/Erika_OS_cortex_mx_ee_cpu.inc **** 
 101:Generated_Source\PSoC5/Erika_OS_cortex_mx_ee_cpu.inc **** #ifdef __GNU__
 102:Generated_Source\PSoC5/Erika_OS_cortex_mx_ee_cpu.inc **** 
 103:Generated_Source\PSoC5/Erika_OS_cortex_mx_ee_cpu.inc **** /* Get current SP */
 104:Generated_Source\PSoC5/Erika_OS_cortex_mx_ee_cpu.inc **** __INLINE__ EE_UINT32  __current_sp(void)
 105:Generated_Source\PSoC5/Erika_OS_cortex_mx_ee_cpu.inc **** {
 106:Generated_Source\PSoC5/Erika_OS_cortex_mx_ee_cpu.inc **** EE_UINT32 temp;
 107:Generated_Source\PSoC5/Erika_OS_cortex_mx_ee_cpu.inc **** __ASM ("mov %0, sp" : "=r" (temp) : );
 108:Generated_Source\PSoC5/Erika_OS_cortex_mx_ee_cpu.inc **** return temp;
 109:Generated_Source\PSoC5/Erika_OS_cortex_mx_ee_cpu.inc **** }
 110:Generated_Source\PSoC5/Erika_OS_cortex_mx_ee_cpu.inc **** 
 111:Generated_Source\PSoC5/Erika_OS_cortex_mx_ee_cpu.inc **** /* Set a breakpoint */
 112:Generated_Source\PSoC5/Erika_OS_cortex_mx_ee_cpu.inc **** #define __breakpoint(value)	__ASM ("bkpt "#value)
 113:Generated_Source\PSoC5/Erika_OS_cortex_mx_ee_cpu.inc **** 
 114:Generated_Source\PSoC5/Erika_OS_cortex_mx_ee_cpu.inc **** #endif
 115:Generated_Source\PSoC5/Erika_OS_cortex_mx_ee_cpu.inc **** 
 116:Generated_Source\PSoC5/Erika_OS_cortex_mx_ee_cpu.inc **** /* ISR Priority representation type */
 117:Generated_Source\PSoC5/Erika_OS_cortex_mx_ee_cpu.inc **** typedef EE_UREG EE_TYPEISR2PRIO;
 118:Generated_Source\PSoC5/Erika_OS_cortex_mx_ee_cpu.inc **** 
 119:Generated_Source\PSoC5/Erika_OS_cortex_mx_ee_cpu.inc **** /* Thread IDs */
 120:Generated_Source\PSoC5/Erika_OS_cortex_mx_ee_cpu.inc **** typedef EE_INT32 EE_TID;
 121:Generated_Source\PSoC5/Erika_OS_cortex_mx_ee_cpu.inc **** 
 122:Generated_Source\PSoC5/Erika_OS_cortex_mx_ee_cpu.inc **** /* Thread IDs - unsigned version*/
 123:Generated_Source\PSoC5/Erika_OS_cortex_mx_ee_cpu.inc **** typedef EE_UINT32 EE_UTID;
 124:Generated_Source\PSoC5/Erika_OS_cortex_mx_ee_cpu.inc **** 
 125:Generated_Source\PSoC5/Erika_OS_cortex_mx_ee_cpu.inc **** /* Used by the common layer to decide whether to start a new thread */
ARM GAS  C:\Users\DHEERA~1\AppData\Local\Temp\ccbAcITh.s 			page 5


 126:Generated_Source\PSoC5/Erika_OS_cortex_mx_ee_cpu.inc **** #define TID_IS_STACKED_MARK 0x80000000
 127:Generated_Source\PSoC5/Erika_OS_cortex_mx_ee_cpu.inc **** 
 128:Generated_Source\PSoC5/Erika_OS_cortex_mx_ee_cpu.inc **** /* EE_TYPEIRQ is currently unused */
 129:Generated_Source\PSoC5/Erika_OS_cortex_mx_ee_cpu.inc **** 
 130:Generated_Source\PSoC5/Erika_OS_cortex_mx_ee_cpu.inc **** /* XXX: define EE_TIME? */
 131:Generated_Source\PSoC5/Erika_OS_cortex_mx_ee_cpu.inc **** 
 132:Generated_Source\PSoC5/Erika_OS_cortex_mx_ee_cpu.inc **** /* Use the "standard" implementation */
 133:Generated_Source\PSoC5/Erika_OS_cortex_mx_ee_cpu.inc **** #include "Erika_OS_common_ee_hal_structs.inc"
 134:Generated_Source\PSoC5/Erika_OS_cortex_mx_ee_cpu.inc **** 
 135:Generated_Source\PSoC5/Erika_OS_cortex_mx_ee_cpu.inc **** /******************************************************************************
 136:Generated_Source\PSoC5/Erika_OS_cortex_mx_ee_cpu.inc ****  Application dependent data types
 137:Generated_Source\PSoC5/Erika_OS_cortex_mx_ee_cpu.inc ****  ******************************************************************************/
 138:Generated_Source\PSoC5/Erika_OS_cortex_mx_ee_cpu.inc **** 
 139:Generated_Source\PSoC5/Erika_OS_cortex_mx_ee_cpu.inc **** #ifdef	__HAS_TYPES_H__
 140:Generated_Source\PSoC5/Erika_OS_cortex_mx_ee_cpu.inc **** #include	"types.h"
 141:Generated_Source\PSoC5/Erika_OS_cortex_mx_ee_cpu.inc **** #endif
 142:Generated_Source\PSoC5/Erika_OS_cortex_mx_ee_cpu.inc **** 
 143:Generated_Source\PSoC5/Erika_OS_cortex_mx_ee_cpu.inc **** /******************************************************************************
 144:Generated_Source\PSoC5/Erika_OS_cortex_mx_ee_cpu.inc ****  CPU Peripherals
 145:Generated_Source\PSoC5/Erika_OS_cortex_mx_ee_cpu.inc ****  ******************************************************************************/
 146:Generated_Source\PSoC5/Erika_OS_cortex_mx_ee_cpu.inc **** 
 147:Generated_Source\PSoC5/Erika_OS_cortex_mx_ee_cpu.inc **** #ifdef __CORTEX_MX__
 148:Generated_Source\PSoC5/Erika_OS_cortex_mx_ee_cpu.inc **** #include "Erika_OS_cortex_mx_ee_nvic.inc"
 149:Generated_Source\PSoC5/Erika_OS_cortex_mx_ee_cpu.inc **** #include "Erika_OS_cortex_mx_ee_systick.inc"
 150:Generated_Source\PSoC5/Erika_OS_cortex_mx_ee_cpu.inc **** #endif
 151:Generated_Source\PSoC5/Erika_OS_cortex_mx_ee_cpu.inc **** 
 152:Generated_Source\PSoC5/Erika_OS_cortex_mx_ee_cpu.inc **** /******************************************************************************
 153:Generated_Source\PSoC5/Erika_OS_cortex_mx_ee_cpu.inc ****  HAL Variables
 154:Generated_Source\PSoC5/Erika_OS_cortex_mx_ee_cpu.inc ****  ******************************************************************************/
 155:Generated_Source\PSoC5/Erika_OS_cortex_mx_ee_cpu.inc **** 
 156:Generated_Source\PSoC5/Erika_OS_cortex_mx_ee_cpu.inc **** #ifdef __MULTI__
 157:Generated_Source\PSoC5/Erika_OS_cortex_mx_ee_cpu.inc **** 
 158:Generated_Source\PSoC5/Erika_OS_cortex_mx_ee_cpu.inc **** /* Top-of-stack of each private stack */
 159:Generated_Source\PSoC5/Erika_OS_cortex_mx_ee_cpu.inc **** extern struct EE_TOS EE_cortex_mx_system_tos[];
 160:Generated_Source\PSoC5/Erika_OS_cortex_mx_ee_cpu.inc **** //#define	EE_std_system_tos EE_cortex_mx_system_tos
 161:Generated_Source\PSoC5/Erika_OS_cortex_mx_ee_cpu.inc **** 
 162:Generated_Source\PSoC5/Erika_OS_cortex_mx_ee_cpu.inc **** /* Index of the current stack */
 163:Generated_Source\PSoC5/Erika_OS_cortex_mx_ee_cpu.inc **** extern EE_UREG EE_cortex_mx_active_tos;
 164:Generated_Source\PSoC5/Erika_OS_cortex_mx_ee_cpu.inc **** #define	EE_hal_active_tos EE_cortex_mx_active_tos
 165:Generated_Source\PSoC5/Erika_OS_cortex_mx_ee_cpu.inc **** 
 166:Generated_Source\PSoC5/Erika_OS_cortex_mx_ee_cpu.inc **** /*extern	EE_UREG EE_pic30_thread_tos[];
 167:Generated_Source\PSoC5/Erika_OS_cortex_mx_ee_cpu.inc **** #define	EE_std_thread_tos EE_pic30_thread_tos */
 168:Generated_Source\PSoC5/Erika_OS_cortex_mx_ee_cpu.inc **** #endif /* __MULTI__ */
 169:Generated_Source\PSoC5/Erika_OS_cortex_mx_ee_cpu.inc **** 
 170:Generated_Source\PSoC5/Erika_OS_cortex_mx_ee_cpu.inc **** /*********************************************************************
 171:Generated_Source\PSoC5/Erika_OS_cortex_mx_ee_cpu.inc ****  Cortex M0 interrupt disabling/enabling
 172:Generated_Source\PSoC5/Erika_OS_cortex_mx_ee_cpu.inc ****  *********************************************************************/
 173:Generated_Source\PSoC5/Erika_OS_cortex_mx_ee_cpu.inc **** 
 174:Generated_Source\PSoC5/Erika_OS_cortex_mx_ee_cpu.inc **** /* Used to check the value returned by EE_cortex_mx_disableIRQ */
 175:Generated_Source\PSoC5/Erika_OS_cortex_mx_ee_cpu.inc **** #define EE_cortex_mx_are_IRQs_enabled(ie) ((ie) ^ 1)
 176:Generated_Source\PSoC5/Erika_OS_cortex_mx_ee_cpu.inc **** 
 177:Generated_Source\PSoC5/Erika_OS_cortex_mx_ee_cpu.inc **** /**
 178:Generated_Source\PSoC5/Erika_OS_cortex_mx_ee_cpu.inc ****  * Enable interrupts
 179:Generated_Source\PSoC5/Erika_OS_cortex_mx_ee_cpu.inc ****  */
 180:Generated_Source\PSoC5/Erika_OS_cortex_mx_ee_cpu.inc **** __INLINE__ void  EE_cortex_mx_enableIRQ(void)
 181:Generated_Source\PSoC5/Erika_OS_cortex_mx_ee_cpu.inc **** {
 182:Generated_Source\PSoC5/Erika_OS_cortex_mx_ee_cpu.inc **** #ifdef __IAR__
ARM GAS  C:\Users\DHEERA~1\AppData\Local\Temp\ccbAcITh.s 			page 6


 183:Generated_Source\PSoC5/Erika_OS_cortex_mx_ee_cpu.inc **** 	__ASM ("cpsie i");
 184:Generated_Source\PSoC5/Erika_OS_cortex_mx_ee_cpu.inc **** #else	/* __IAR__ */
 185:Generated_Source\PSoC5/Erika_OS_cortex_mx_ee_cpu.inc **** #ifdef __CCS__
 186:Generated_Source\PSoC5/Erika_OS_cortex_mx_ee_cpu.inc **** 	__ASM ("    cpsie    i\n");
 187:Generated_Source\PSoC5/Erika_OS_cortex_mx_ee_cpu.inc **** #else	/* __CCS__ */
 188:Generated_Source\PSoC5/Erika_OS_cortex_mx_ee_cpu.inc **** #ifdef __KEIL__
 189:Generated_Source\PSoC5/Erika_OS_cortex_mx_ee_cpu.inc **** 	__enable_irq();
 190:Generated_Source\PSoC5/Erika_OS_cortex_mx_ee_cpu.inc **** #else	/* __KEIL__ */
 191:Generated_Source\PSoC5/Erika_OS_cortex_mx_ee_cpu.inc **** 	__ASM volatile("cpsie i");
 192:Generated_Source\PSoC5/Erika_OS_cortex_mx_ee_cpu.inc **** #endif	/* !__KEIL__ */
 193:Generated_Source\PSoC5/Erika_OS_cortex_mx_ee_cpu.inc **** #endif	/* !__CCS__ */
 194:Generated_Source\PSoC5/Erika_OS_cortex_mx_ee_cpu.inc **** #endif	/* !__IAR__ */
 195:Generated_Source\PSoC5/Erika_OS_cortex_mx_ee_cpu.inc **** }
 196:Generated_Source\PSoC5/Erika_OS_cortex_mx_ee_cpu.inc **** 
 197:Generated_Source\PSoC5/Erika_OS_cortex_mx_ee_cpu.inc **** /**
 198:Generated_Source\PSoC5/Erika_OS_cortex_mx_ee_cpu.inc ****  * Disable interrupts
 199:Generated_Source\PSoC5/Erika_OS_cortex_mx_ee_cpu.inc ****  */
 200:Generated_Source\PSoC5/Erika_OS_cortex_mx_ee_cpu.inc **** __INLINE__ void  EE_cortex_mx_disableIRQ(void)
 201:Generated_Source\PSoC5/Erika_OS_cortex_mx_ee_cpu.inc **** {
 202:Generated_Source\PSoC5/Erika_OS_cortex_mx_ee_cpu.inc **** #ifdef __IAR__
 203:Generated_Source\PSoC5/Erika_OS_cortex_mx_ee_cpu.inc **** 	__ASM ("cpsid i");
 204:Generated_Source\PSoC5/Erika_OS_cortex_mx_ee_cpu.inc **** #else	/* __IAR__ */
 205:Generated_Source\PSoC5/Erika_OS_cortex_mx_ee_cpu.inc **** #ifdef __CCS__
 206:Generated_Source\PSoC5/Erika_OS_cortex_mx_ee_cpu.inc **** 	__ASM ("    cpsid    i\n");
 207:Generated_Source\PSoC5/Erika_OS_cortex_mx_ee_cpu.inc **** #else	/* __CCS__ */
 208:Generated_Source\PSoC5/Erika_OS_cortex_mx_ee_cpu.inc **** #ifdef __KEIL__
 209:Generated_Source\PSoC5/Erika_OS_cortex_mx_ee_cpu.inc **** 	__disable_irq();
 210:Generated_Source\PSoC5/Erika_OS_cortex_mx_ee_cpu.inc **** #else	/* __KEIL__ */
 211:Generated_Source\PSoC5/Erika_OS_cortex_mx_ee_cpu.inc **** 	__ASM volatile("cpsid i");
  80              		.loc 2 211 0
  81              		.syntax unified
  82              	@ 211 "Generated_Source\PSoC5/Erika_OS_cortex_mx_ee_cpu.inc" 1
  83 000a 72B6     		cpsid i
  84              	@ 0 "" 2
  85              		.thumb
  86              		.syntax unified
  87              	.LBE57:
  88              	.LBE56:
  89              	.LBB58:
  90              	.LBB59:
 212:Generated_Source\PSoC5/Erika_OS_cortex_mx_ee_cpu.inc **** #endif	/* !__KEIL__ */
 213:Generated_Source\PSoC5/Erika_OS_cortex_mx_ee_cpu.inc **** #endif	/* !__CCS__ */
 214:Generated_Source\PSoC5/Erika_OS_cortex_mx_ee_cpu.inc **** #endif	/* !__IAR__ */
 215:Generated_Source\PSoC5/Erika_OS_cortex_mx_ee_cpu.inc **** }
 216:Generated_Source\PSoC5/Erika_OS_cortex_mx_ee_cpu.inc **** 
 217:Generated_Source\PSoC5/Erika_OS_cortex_mx_ee_cpu.inc **** /**
 218:Generated_Source\PSoC5/Erika_OS_cortex_mx_ee_cpu.inc ****  * Resume interrupts
 219:Generated_Source\PSoC5/Erika_OS_cortex_mx_ee_cpu.inc ****  */
 220:Generated_Source\PSoC5/Erika_OS_cortex_mx_ee_cpu.inc **** __INLINE__ void  EE_cortex_mx_resumeIRQ(EE_FREG f)
 221:Generated_Source\PSoC5/Erika_OS_cortex_mx_ee_cpu.inc **** {
 222:Generated_Source\PSoC5/Erika_OS_cortex_mx_ee_cpu.inc **** #ifdef __IAR__
 223:Generated_Source\PSoC5/Erika_OS_cortex_mx_ee_cpu.inc **** 	__set_PRIMASK(f);
 224:Generated_Source\PSoC5/Erika_OS_cortex_mx_ee_cpu.inc **** #else	/* __IAR__ */
 225:Generated_Source\PSoC5/Erika_OS_cortex_mx_ee_cpu.inc **** #ifdef __CCS__
 226:Generated_Source\PSoC5/Erika_OS_cortex_mx_ee_cpu.inc **** 	__ASM ("    msr    primask, r0\n");
 227:Generated_Source\PSoC5/Erika_OS_cortex_mx_ee_cpu.inc **** #else	/* __CCS__ */
 228:Generated_Source\PSoC5/Erika_OS_cortex_mx_ee_cpu.inc **** #ifdef __KEIL__
ARM GAS  C:\Users\DHEERA~1\AppData\Local\Temp\ccbAcITh.s 			page 7


 229:Generated_Source\PSoC5/Erika_OS_cortex_mx_ee_cpu.inc **** 	register EE_FREG PRIMASK __ASM("primask");
 230:Generated_Source\PSoC5/Erika_OS_cortex_mx_ee_cpu.inc **** 	PRIMASK = f;
 231:Generated_Source\PSoC5/Erika_OS_cortex_mx_ee_cpu.inc **** #else	/* __KEIL__ */
 232:Generated_Source\PSoC5/Erika_OS_cortex_mx_ee_cpu.inc **** 	__ASM volatile("msr primask, %0" :: "r" (f));
 233:Generated_Source\PSoC5/Erika_OS_cortex_mx_ee_cpu.inc **** #endif	/* !__KEIL__ */
 234:Generated_Source\PSoC5/Erika_OS_cortex_mx_ee_cpu.inc **** #endif	/* !__CCS__ */
 235:Generated_Source\PSoC5/Erika_OS_cortex_mx_ee_cpu.inc **** #endif	/* !__IAR__ */
 236:Generated_Source\PSoC5/Erika_OS_cortex_mx_ee_cpu.inc **** }
 237:Generated_Source\PSoC5/Erika_OS_cortex_mx_ee_cpu.inc **** 
 238:Generated_Source\PSoC5/Erika_OS_cortex_mx_ee_cpu.inc **** /**
 239:Generated_Source\PSoC5/Erika_OS_cortex_mx_ee_cpu.inc ****  * Suspend interrupts
 240:Generated_Source\PSoC5/Erika_OS_cortex_mx_ee_cpu.inc ****  */
 241:Generated_Source\PSoC5/Erika_OS_cortex_mx_ee_cpu.inc **** __INLINE__ EE_FREG  EE_cortex_mx_suspendIRQ(void)
 242:Generated_Source\PSoC5/Erika_OS_cortex_mx_ee_cpu.inc **** {
 243:Generated_Source\PSoC5/Erika_OS_cortex_mx_ee_cpu.inc **** #ifndef __CCS__
 244:Generated_Source\PSoC5/Erika_OS_cortex_mx_ee_cpu.inc **** 	EE_FREG istat;
 245:Generated_Source\PSoC5/Erika_OS_cortex_mx_ee_cpu.inc **** #endif
 246:Generated_Source\PSoC5/Erika_OS_cortex_mx_ee_cpu.inc **** #ifdef __IAR__
 247:Generated_Source\PSoC5/Erika_OS_cortex_mx_ee_cpu.inc **** 	 istat = __get_PRIMASK();
 248:Generated_Source\PSoC5/Erika_OS_cortex_mx_ee_cpu.inc **** 	__ASM ("cpsid i");
 249:Generated_Source\PSoC5/Erika_OS_cortex_mx_ee_cpu.inc **** #else	/* __IAR__ */
 250:Generated_Source\PSoC5/Erika_OS_cortex_mx_ee_cpu.inc **** #ifdef __CCS__
 251:Generated_Source\PSoC5/Erika_OS_cortex_mx_ee_cpu.inc **** 	__ASM ("    mrs     r0, primask\n"
 252:Generated_Source\PSoC5/Erika_OS_cortex_mx_ee_cpu.inc **** 	       "    cpsid   i\n"
 253:Generated_Source\PSoC5/Erika_OS_cortex_mx_ee_cpu.inc **** 	       "    bx      lr\n");
 254:Generated_Source\PSoC5/Erika_OS_cortex_mx_ee_cpu.inc **** #else	/* __CCS__ */
 255:Generated_Source\PSoC5/Erika_OS_cortex_mx_ee_cpu.inc **** #ifdef __KEIL__
 256:Generated_Source\PSoC5/Erika_OS_cortex_mx_ee_cpu.inc **** 	register EE_FREG PRIMASK __ASM("primask");
 257:Generated_Source\PSoC5/Erika_OS_cortex_mx_ee_cpu.inc **** 	istat = PRIMASK;
 258:Generated_Source\PSoC5/Erika_OS_cortex_mx_ee_cpu.inc **** 	__disable_irq();
 259:Generated_Source\PSoC5/Erika_OS_cortex_mx_ee_cpu.inc **** #else	/* __KEIL__ */
 260:Generated_Source\PSoC5/Erika_OS_cortex_mx_ee_cpu.inc **** 	__ASM volatile ("mrs %0, primask" : "=r" (istat) );
 261:Generated_Source\PSoC5/Erika_OS_cortex_mx_ee_cpu.inc **** 	__ASM volatile ("cpsid i");
 262:Generated_Source\PSoC5/Erika_OS_cortex_mx_ee_cpu.inc **** #endif	/* !__KEIL__ */
 263:Generated_Source\PSoC5/Erika_OS_cortex_mx_ee_cpu.inc **** #endif	/* !__CCS__ */
 264:Generated_Source\PSoC5/Erika_OS_cortex_mx_ee_cpu.inc **** #endif	/* !__IAR__ */
 265:Generated_Source\PSoC5/Erika_OS_cortex_mx_ee_cpu.inc **** #ifdef __CCS__
 266:Generated_Source\PSoC5/Erika_OS_cortex_mx_ee_cpu.inc **** 	return 0;
 267:Generated_Source\PSoC5/Erika_OS_cortex_mx_ee_cpu.inc **** #else
 268:Generated_Source\PSoC5/Erika_OS_cortex_mx_ee_cpu.inc **** 	return istat;
 269:Generated_Source\PSoC5/Erika_OS_cortex_mx_ee_cpu.inc **** #endif
 270:Generated_Source\PSoC5/Erika_OS_cortex_mx_ee_cpu.inc **** }
 271:Generated_Source\PSoC5/Erika_OS_cortex_mx_ee_cpu.inc **** 
 272:Generated_Source\PSoC5/Erika_OS_cortex_mx_ee_cpu.inc **** /**
 273:Generated_Source\PSoC5/Erika_OS_cortex_mx_ee_cpu.inc ****  * Return true (not 0) if IRQs are enabled, 0 (false) if IRQ are disabled.
 274:Generated_Source\PSoC5/Erika_OS_cortex_mx_ee_cpu.inc ****  */
 275:Generated_Source\PSoC5/Erika_OS_cortex_mx_ee_cpu.inc **** __INLINE__ EE_UINT32  EE_cortex_mx_get_IRQ_enabled(void)
 276:Generated_Source\PSoC5/Erika_OS_cortex_mx_ee_cpu.inc **** {
 277:Generated_Source\PSoC5/Erika_OS_cortex_mx_ee_cpu.inc **** #ifndef __CCS__
 278:Generated_Source\PSoC5/Erika_OS_cortex_mx_ee_cpu.inc **** 	EE_UREG ie;
 279:Generated_Source\PSoC5/Erika_OS_cortex_mx_ee_cpu.inc **** #endif
 280:Generated_Source\PSoC5/Erika_OS_cortex_mx_ee_cpu.inc **** #ifdef __IAR__
 281:Generated_Source\PSoC5/Erika_OS_cortex_mx_ee_cpu.inc **** 	ie = __get_PRIMASK();
 282:Generated_Source\PSoC5/Erika_OS_cortex_mx_ee_cpu.inc **** #else	/* __IAR__ */
 283:Generated_Source\PSoC5/Erika_OS_cortex_mx_ee_cpu.inc **** #ifdef __CCS__
 284:Generated_Source\PSoC5/Erika_OS_cortex_mx_ee_cpu.inc **** 	__ASM ("    MRS     r0, PRIMASK\n"
 285:Generated_Source\PSoC5/Erika_OS_cortex_mx_ee_cpu.inc **** 	       "    EOR     r0, #1\n"
ARM GAS  C:\Users\DHEERA~1\AppData\Local\Temp\ccbAcITh.s 			page 8


 286:Generated_Source\PSoC5/Erika_OS_cortex_mx_ee_cpu.inc **** 	       "    bx      lr\n");
 287:Generated_Source\PSoC5/Erika_OS_cortex_mx_ee_cpu.inc **** #else	/* __CCS__ */
 288:Generated_Source\PSoC5/Erika_OS_cortex_mx_ee_cpu.inc **** #ifdef __KEIL__
 289:Generated_Source\PSoC5/Erika_OS_cortex_mx_ee_cpu.inc **** 	register EE_FREG PRIMASK __ASM("primask");
 290:Generated_Source\PSoC5/Erika_OS_cortex_mx_ee_cpu.inc **** 	ie = PRIMASK;
 291:Generated_Source\PSoC5/Erika_OS_cortex_mx_ee_cpu.inc **** #else	/* __KEIL__ */
 292:Generated_Source\PSoC5/Erika_OS_cortex_mx_ee_cpu.inc **** 	__ASM volatile ("MRS %0, primask" : "=r" (ie) );
 293:Generated_Source\PSoC5/Erika_OS_cortex_mx_ee_cpu.inc **** #endif	/* !__KEIL__ */
 294:Generated_Source\PSoC5/Erika_OS_cortex_mx_ee_cpu.inc **** #endif	/* !__CCS__ */
 295:Generated_Source\PSoC5/Erika_OS_cortex_mx_ee_cpu.inc **** #endif	/* !__IAR__ */
 296:Generated_Source\PSoC5/Erika_OS_cortex_mx_ee_cpu.inc **** #ifdef __CCS__
 297:Generated_Source\PSoC5/Erika_OS_cortex_mx_ee_cpu.inc **** 	return 0;
 298:Generated_Source\PSoC5/Erika_OS_cortex_mx_ee_cpu.inc **** #else
 299:Generated_Source\PSoC5/Erika_OS_cortex_mx_ee_cpu.inc **** 	return EE_cortex_mx_are_IRQs_enabled(ie);
 300:Generated_Source\PSoC5/Erika_OS_cortex_mx_ee_cpu.inc **** #endif
 301:Generated_Source\PSoC5/Erika_OS_cortex_mx_ee_cpu.inc **** }
 302:Generated_Source\PSoC5/Erika_OS_cortex_mx_ee_cpu.inc **** 
 303:Generated_Source\PSoC5/Erika_OS_cortex_mx_ee_cpu.inc **** __INLINE__ EE_TYPEISR2PRIO  EE_cortex_mx_get_int_prio(void)
 304:Generated_Source\PSoC5/Erika_OS_cortex_mx_ee_cpu.inc **** {
 305:Generated_Source\PSoC5/Erika_OS_cortex_mx_ee_cpu.inc **** #ifdef __CORTEX_M4__
 306:Generated_Source\PSoC5/Erika_OS_cortex_mx_ee_cpu.inc **** 
 307:Generated_Source\PSoC5/Erika_OS_cortex_mx_ee_cpu.inc **** #ifndef __CCS__
 308:Generated_Source\PSoC5/Erika_OS_cortex_mx_ee_cpu.inc **** 	register EE_UREG prio;
 309:Generated_Source\PSoC5/Erika_OS_cortex_mx_ee_cpu.inc **** #ifdef	__KEIL__
 310:Generated_Source\PSoC5/Erika_OS_cortex_mx_ee_cpu.inc **** 	register EE_FREG BASEPRI __ASM("basepri");
 311:Generated_Source\PSoC5/Erika_OS_cortex_mx_ee_cpu.inc **** #endif
 312:Generated_Source\PSoC5/Erika_OS_cortex_mx_ee_cpu.inc **** 
 313:Generated_Source\PSoC5/Erika_OS_cortex_mx_ee_cpu.inc **** #endif
 314:Generated_Source\PSoC5/Erika_OS_cortex_mx_ee_cpu.inc **** 
 315:Generated_Source\PSoC5/Erika_OS_cortex_mx_ee_cpu.inc **** #ifdef __CCS__
 316:Generated_Source\PSoC5/Erika_OS_cortex_mx_ee_cpu.inc **** 	/* NVIC_INT_PRI_S = 5 */
 317:Generated_Source\PSoC5/Erika_OS_cortex_mx_ee_cpu.inc **** 	__ASM ("    MRS     R0, BASEPRI\n"
 318:Generated_Source\PSoC5/Erika_OS_cortex_mx_ee_cpu.inc **** 	       "    ASR     R0, #5\n"
 319:Generated_Source\PSoC5/Erika_OS_cortex_mx_ee_cpu.inc **** 	       "    BLX     LR\n");
 320:Generated_Source\PSoC5/Erika_OS_cortex_mx_ee_cpu.inc **** #else	/* __CCS__ */
 321:Generated_Source\PSoC5/Erika_OS_cortex_mx_ee_cpu.inc **** #ifdef __KEIL__
 322:Generated_Source\PSoC5/Erika_OS_cortex_mx_ee_cpu.inc **** 	prio = BASEPRI;
 323:Generated_Source\PSoC5/Erika_OS_cortex_mx_ee_cpu.inc **** #else	/* __KEIL__ */
 324:Generated_Source\PSoC5/Erika_OS_cortex_mx_ee_cpu.inc **** #ifdef __GNU__
 325:Generated_Source\PSoC5/Erika_OS_cortex_mx_ee_cpu.inc **** 	__ASM volatile("MRS %0, BASEPRI" : "=r" (prio) :: );
  91              		.loc 2 325 0
  92              		.syntax unified
  93              	@ 325 "Generated_Source\PSoC5/Erika_OS_cortex_mx_ee_cpu.inc" 1
  94 000c EFF31184 		MRS r4, BASEPRI
  95              	@ 0 "" 2
  96              	.LVL2:
  97              		.thumb
  98              		.syntax unified
  99              	.LBE59:
 100              	.LBE58:
 101              	.LBB60:
 102              	.LBB61:
 326:Generated_Source\PSoC5/Erika_OS_cortex_mx_ee_cpu.inc **** #else
 327:Generated_Source\PSoC5/Erika_OS_cortex_mx_ee_cpu.inc **** 	__ASM volatile("MRS %0, BASEPRI" :: "=r" (prio));
 328:Generated_Source\PSoC5/Erika_OS_cortex_mx_ee_cpu.inc **** #endif	/* !__GNU__ */
 329:Generated_Source\PSoC5/Erika_OS_cortex_mx_ee_cpu.inc **** #endif	/* !__KEIL__ */
 330:Generated_Source\PSoC5/Erika_OS_cortex_mx_ee_cpu.inc **** #endif	/* !__CCS__ */
ARM GAS  C:\Users\DHEERA~1\AppData\Local\Temp\ccbAcITh.s 			page 9


 331:Generated_Source\PSoC5/Erika_OS_cortex_mx_ee_cpu.inc **** 
 332:Generated_Source\PSoC5/Erika_OS_cortex_mx_ee_cpu.inc **** #ifdef __CCS__
 333:Generated_Source\PSoC5/Erika_OS_cortex_mx_ee_cpu.inc **** 	return 0;
 334:Generated_Source\PSoC5/Erika_OS_cortex_mx_ee_cpu.inc **** #else
 335:Generated_Source\PSoC5/Erika_OS_cortex_mx_ee_cpu.inc **** 	return prio >> NVIC_INT_PRI_S;
 336:Generated_Source\PSoC5/Erika_OS_cortex_mx_ee_cpu.inc **** #endif
 337:Generated_Source\PSoC5/Erika_OS_cortex_mx_ee_cpu.inc **** 
 338:Generated_Source\PSoC5/Erika_OS_cortex_mx_ee_cpu.inc **** #else	/* __CORTEX_M4__ */
 339:Generated_Source\PSoC5/Erika_OS_cortex_mx_ee_cpu.inc **** 	return 0;
 340:Generated_Source\PSoC5/Erika_OS_cortex_mx_ee_cpu.inc **** #endif	/* !__CORTEX_M4__ */
 341:Generated_Source\PSoC5/Erika_OS_cortex_mx_ee_cpu.inc **** }
 342:Generated_Source\PSoC5/Erika_OS_cortex_mx_ee_cpu.inc **** 
 343:Generated_Source\PSoC5/Erika_OS_cortex_mx_ee_cpu.inc **** __INLINE__ void  EE_cortex_mx_set_int_prio(
 344:Generated_Source\PSoC5/Erika_OS_cortex_mx_ee_cpu.inc ****   EE_TYPEISR2PRIO prio
 345:Generated_Source\PSoC5/Erika_OS_cortex_mx_ee_cpu.inc **** )
 346:Generated_Source\PSoC5/Erika_OS_cortex_mx_ee_cpu.inc **** {
 347:Generated_Source\PSoC5/Erika_OS_cortex_mx_ee_cpu.inc **** #ifdef __CORTEX_M4__
 348:Generated_Source\PSoC5/Erika_OS_cortex_mx_ee_cpu.inc **** #ifdef __CCS__
 349:Generated_Source\PSoC5/Erika_OS_cortex_mx_ee_cpu.inc **** 	/* NVIC_INT_PRI_S = 5 */
 350:Generated_Source\PSoC5/Erika_OS_cortex_mx_ee_cpu.inc **** 	__ASM ("    LSL    R0, #5\n"
 351:Generated_Source\PSoC5/Erika_OS_cortex_mx_ee_cpu.inc **** 	       "    MSR    BASEPRI, R0\n");
 352:Generated_Source\PSoC5/Erika_OS_cortex_mx_ee_cpu.inc **** #else	/* __CCS__ */
 353:Generated_Source\PSoC5/Erika_OS_cortex_mx_ee_cpu.inc **** #ifdef __KEIL__
 354:Generated_Source\PSoC5/Erika_OS_cortex_mx_ee_cpu.inc **** 	register EE_FREG BASEPRI __ASM("basepri");
 355:Generated_Source\PSoC5/Erika_OS_cortex_mx_ee_cpu.inc **** 	BASEPRI = (prio << NVIC_INT_PRI_S);
 356:Generated_Source\PSoC5/Erika_OS_cortex_mx_ee_cpu.inc **** #else	/* __KEIL__ */
 357:Generated_Source\PSoC5/Erika_OS_cortex_mx_ee_cpu.inc **** #ifdef __GNU__
 358:Generated_Source\PSoC5/Erika_OS_cortex_mx_ee_cpu.inc **** 	__ASM volatile("MSR BASEPRI, %0" :: "r" (prio << NVIC_INT_PRI_S) : );
 359:Generated_Source\PSoC5/Erika_OS_cortex_mx_ee_cpu.inc **** #else
 360:Generated_Source\PSoC5/Erika_OS_cortex_mx_ee_cpu.inc **** 	__ASM volatile("MSR BASEPRI, %0" :: "r" (prio << NVIC_INT_PRI_S));
 361:Generated_Source\PSoC5/Erika_OS_cortex_mx_ee_cpu.inc **** #endif	/* !__GNU__ */
 362:Generated_Source\PSoC5/Erika_OS_cortex_mx_ee_cpu.inc **** #endif	/* !__KEIL__ */
 363:Generated_Source\PSoC5/Erika_OS_cortex_mx_ee_cpu.inc **** #endif	/* !__CCS__ */
 364:Generated_Source\PSoC5/Erika_OS_cortex_mx_ee_cpu.inc **** #endif	/* __CORTEX_M4__ */
 365:Generated_Source\PSoC5/Erika_OS_cortex_mx_ee_cpu.inc **** }
 366:Generated_Source\PSoC5/Erika_OS_cortex_mx_ee_cpu.inc **** 
 367:Generated_Source\PSoC5/Erika_OS_cortex_mx_ee_cpu.inc **** __INLINE__ EE_TYPEISR2PRIO  EE_cortex_mx_get_isr_prio(
 368:Generated_Source\PSoC5/Erika_OS_cortex_mx_ee_cpu.inc ****   void
 369:Generated_Source\PSoC5/Erika_OS_cortex_mx_ee_cpu.inc **** )
 370:Generated_Source\PSoC5/Erika_OS_cortex_mx_ee_cpu.inc **** {
 371:Generated_Source\PSoC5/Erika_OS_cortex_mx_ee_cpu.inc **** #ifdef __CORTEX_M4__
 372:Generated_Source\PSoC5/Erika_OS_cortex_mx_ee_cpu.inc ****   register EE_UREG vectact = NVIC_INT_CTRL_R & NVIC_INT_CTRL_VEC_ACT_M;
 103              		.loc 2 372 0
 104 0010 1E4B     		ldr	r3, .L11
 105 0012 1B68     		ldr	r3, [r3]
 106 0014 DBB2     		uxtb	r3, r3
 107              	.LVL3:
 373:Generated_Source\PSoC5/Erika_OS_cortex_mx_ee_cpu.inc ****   register EE_TYPEISR2PRIO prio = 0;
 374:Generated_Source\PSoC5/Erika_OS_cortex_mx_ee_cpu.inc **** 
 375:Generated_Source\PSoC5/Erika_OS_cortex_mx_ee_cpu.inc ****   if (vectact > EE_CORTEX_MX_SYSTICK_EXC_NUM) {
 108              		.loc 2 375 0
 109 0016 0F2B     		cmp	r3, #15
 110 0018 10D9     		bls	.L6
 376:Generated_Source\PSoC5/Erika_OS_cortex_mx_ee_cpu.inc ****     vectact -= EE_CORTEX_MX_SYSTICK_EXC_NUM + 1;
 111              		.loc 2 376 0
 112 001a 103B     		subs	r3, r3, #16
 113              	.LVL4:
ARM GAS  C:\Users\DHEERA~1\AppData\Local\Temp\ccbAcITh.s 			page 10


 377:Generated_Source\PSoC5/Erika_OS_cortex_mx_ee_cpu.inc ****     prio = NVIC_GET_PRI(vectact);
 114              		.loc 2 377 0
 115 001c 23F00302 		bic	r2, r3, #3
 116 0020 02F16042 		add	r2, r2, #-536870912
 117 0024 02F56442 		add	r2, r2, #58368
 118 0028 1168     		ldr	r1, [r2]
 119 002a DB00     		lsls	r3, r3, #3
 120              	.LVL5:
 121 002c 03F01803 		and	r3, r3, #24
 122 0030 E022     		movs	r2, #224
 123 0032 9A40     		lsls	r2, r2, r3
 124 0034 0A40     		ands	r2, r2, r1
 125 0036 22FA03F3 		lsr	r3, r2, r3
 126              	.LVL6:
 127 003a 06E0     		b	.L7
 128              	.LVL7:
 129              	.L6:
 378:Generated_Source\PSoC5/Erika_OS_cortex_mx_ee_cpu.inc ****   }
 379:Generated_Source\PSoC5/Erika_OS_cortex_mx_ee_cpu.inc **** #ifdef	__USE_SYSTICK__
 380:Generated_Source\PSoC5/Erika_OS_cortex_mx_ee_cpu.inc ****   else if (vectact == EE_CORTEX_MX_SYSTICK_EXC_NUM) {
 130              		.loc 2 380 0
 131 003c 0F2B     		cmp	r3, #15
 132 003e 03D1     		bne	.L10
 381:Generated_Source\PSoC5/Erika_OS_cortex_mx_ee_cpu.inc ****     prio = NVIC_SYS_PRI3_R >> NVIC_SYS_PRI3_TICK_S;
 133              		.loc 2 381 0
 134 0040 134B     		ldr	r3, .L11+4
 135              	.LVL8:
 136 0042 1B68     		ldr	r3, [r3]
 137 0044 1B0E     		lsrs	r3, r3, #24
 138              	.LVL9:
 139 0046 00E0     		b	.L7
 140              	.LVL10:
 141              	.L10:
 373:Generated_Source\PSoC5/Erika_OS_cortex_mx_ee_cpu.inc **** 
 142              		.loc 2 373 0
 143 0048 0023     		movs	r3, #0
 144              	.LVL11:
 145              	.L7:
 146              	.LBE61:
 147              	.LBE60:
 148              	.LBB62:
 149              	.LBB63:
 358:Generated_Source\PSoC5/Erika_OS_cortex_mx_ee_cpu.inc **** #else
 150              		.loc 2 358 0
 151              		.syntax unified
 152              	@ 358 "Generated_Source\PSoC5/Erika_OS_cortex_mx_ee_cpu.inc" 1
 153 004a 83F31188 		MSR BASEPRI, r3
 154              	@ 0 "" 2
 155              		.thumb
 156              		.syntax unified
 157              	.LBE63:
 158              	.LBE62:
 159              	.LBB64:
 160              	.LBB65:
 161              		.file 3 "Generated_Source\\PSoC5/Erika_OS_common_ee_irqstub.inc"
   1:Generated_Source\PSoC5/Erika_OS_common_ee_irqstub.inc **** /* ###*B*###
   2:Generated_Source\PSoC5/Erika_OS_common_ee_irqstub.inc ****  * ERIKA Enterprise - a tiny RTOS for small microcontrollers
ARM GAS  C:\Users\DHEERA~1\AppData\Local\Temp\ccbAcITh.s 			page 11


   3:Generated_Source\PSoC5/Erika_OS_common_ee_irqstub.inc ****  *
   4:Generated_Source\PSoC5/Erika_OS_common_ee_irqstub.inc ****  * Copyright (C) 2002-2010  Evidence Srl
   5:Generated_Source\PSoC5/Erika_OS_common_ee_irqstub.inc ****  *
   6:Generated_Source\PSoC5/Erika_OS_common_ee_irqstub.inc ****  * This file is part of ERIKA Enterprise.
   7:Generated_Source\PSoC5/Erika_OS_common_ee_irqstub.inc ****  *
   8:Generated_Source\PSoC5/Erika_OS_common_ee_irqstub.inc ****  * ERIKA Enterprise is free software; you can redistribute it
   9:Generated_Source\PSoC5/Erika_OS_common_ee_irqstub.inc ****  * and/or modify it under the terms of the GNU General Public License
  10:Generated_Source\PSoC5/Erika_OS_common_ee_irqstub.inc ****  * version 2 as published by the Free Software Foundation,
  11:Generated_Source\PSoC5/Erika_OS_common_ee_irqstub.inc ****  * (with a special exception described below).
  12:Generated_Source\PSoC5/Erika_OS_common_ee_irqstub.inc ****  *
  13:Generated_Source\PSoC5/Erika_OS_common_ee_irqstub.inc ****  * Linking this code statically or dynamically with other modules is
  14:Generated_Source\PSoC5/Erika_OS_common_ee_irqstub.inc ****  * making a combined work based on this code.  Thus, the terms and
  15:Generated_Source\PSoC5/Erika_OS_common_ee_irqstub.inc ****  * conditions of the GNU General Public License cover the whole
  16:Generated_Source\PSoC5/Erika_OS_common_ee_irqstub.inc ****  * combination.
  17:Generated_Source\PSoC5/Erika_OS_common_ee_irqstub.inc ****  *
  18:Generated_Source\PSoC5/Erika_OS_common_ee_irqstub.inc ****  * As a special exception, the copyright holders of this library give you
  19:Generated_Source\PSoC5/Erika_OS_common_ee_irqstub.inc ****  * permission to link this code with independent modules to produce an
  20:Generated_Source\PSoC5/Erika_OS_common_ee_irqstub.inc ****  * executable, regardless of the license terms of these independent
  21:Generated_Source\PSoC5/Erika_OS_common_ee_irqstub.inc ****  * modules, and to copy and distribute the resulting executable under
  22:Generated_Source\PSoC5/Erika_OS_common_ee_irqstub.inc ****  * terms of your choice, provided that you also meet, for each linked
  23:Generated_Source\PSoC5/Erika_OS_common_ee_irqstub.inc ****  * independent module, the terms and conditions of the license of that
  24:Generated_Source\PSoC5/Erika_OS_common_ee_irqstub.inc ****  * module.  An independent module is a module which is not derived from
  25:Generated_Source\PSoC5/Erika_OS_common_ee_irqstub.inc ****  * or based on this library.  If you modify this code, you may extend
  26:Generated_Source\PSoC5/Erika_OS_common_ee_irqstub.inc ****  * this exception to your version of the code, but you are not
  27:Generated_Source\PSoC5/Erika_OS_common_ee_irqstub.inc ****  * obligated to do so.  If you do not wish to do so, delete this
  28:Generated_Source\PSoC5/Erika_OS_common_ee_irqstub.inc ****  * exception statement from your version.
  29:Generated_Source\PSoC5/Erika_OS_common_ee_irqstub.inc ****  *
  30:Generated_Source\PSoC5/Erika_OS_common_ee_irqstub.inc ****  * ERIKA Enterprise is distributed in the hope that it will be
  31:Generated_Source\PSoC5/Erika_OS_common_ee_irqstub.inc ****  * useful, but WITHOUT ANY WARRANTY; without even the implied warranty
  32:Generated_Source\PSoC5/Erika_OS_common_ee_irqstub.inc ****  * of MERCHANTABILITY or FITNESS FOR A PARTICULAR PURPOSE.  See the
  33:Generated_Source\PSoC5/Erika_OS_common_ee_irqstub.inc ****  * GNU General Public License version 2 for more details.
  34:Generated_Source\PSoC5/Erika_OS_common_ee_irqstub.inc ****  *
  35:Generated_Source\PSoC5/Erika_OS_common_ee_irqstub.inc ****  * You should have received a copy of the GNU General Public License
  36:Generated_Source\PSoC5/Erika_OS_common_ee_irqstub.inc ****  * version 2 along with ERIKA Enterprise; if not, write to the
  37:Generated_Source\PSoC5/Erika_OS_common_ee_irqstub.inc ****  * Free Software Foundation, Inc., 51 Franklin Street, Fifth Floor,
  38:Generated_Source\PSoC5/Erika_OS_common_ee_irqstub.inc ****  * Boston, MA 02110-1301 USA.
  39:Generated_Source\PSoC5/Erika_OS_common_ee_irqstub.inc ****  * ###*E*### */
  40:Generated_Source\PSoC5/Erika_OS_common_ee_irqstub.inc **** 
  41:Generated_Source\PSoC5/Erika_OS_common_ee_irqstub.inc **** /*
  42:Generated_Source\PSoC5/Erika_OS_common_ee_irqstub.inc ****  * Some IRQ-related stuff.
  43:Generated_Source\PSoC5/Erika_OS_common_ee_irqstub.inc ****  * Author: 2009-2010,  Bernardo  Dal Seno
  44:Generated_Source\PSoC5/Erika_OS_common_ee_irqstub.inc ****  */
  45:Generated_Source\PSoC5/Erika_OS_common_ee_irqstub.inc **** 
  46:Generated_Source\PSoC5/Erika_OS_common_ee_irqstub.inc **** /*
  47:Generated_Source\PSoC5/Erika_OS_common_ee_irqstub.inc ****  * PSoC Port and API Generation
  48:Generated_Source\PSoC5/Erika_OS_common_ee_irqstub.inc ****  * Carlos Fernando Meier Martinez
  49:Generated_Source\PSoC5/Erika_OS_common_ee_irqstub.inc ****  * Hochschule Darmstadt, Germany. 2017.
  50:Generated_Source\PSoC5/Erika_OS_common_ee_irqstub.inc ****  */
  51:Generated_Source\PSoC5/Erika_OS_common_ee_irqstub.inc **** 
  52:Generated_Source\PSoC5/Erika_OS_common_ee_irqstub.inc **** /*******************************************************************************
  53:Generated_Source\PSoC5/Erika_OS_common_ee_irqstub.inc ****  *                        !!!WARNING!!!
  54:Generated_Source\PSoC5/Erika_OS_common_ee_irqstub.inc ****  * This header depends on "cpu/common/inc/ee_context.inc" or your own
  55:Generated_Source\PSoC5/Erika_OS_common_ee_irqstub.inc ****  * implementation of the same. You should include it file before including this
  56:Generated_Source\PSoC5/Erika_OS_common_ee_irqstub.inc ****  * file
  57:Generated_Source\PSoC5/Erika_OS_common_ee_irqstub.inc ****  ******************************************************************************/
  58:Generated_Source\PSoC5/Erika_OS_common_ee_irqstub.inc **** 
  59:Generated_Source\PSoC5/Erika_OS_common_ee_irqstub.inc **** #ifndef PKG_CPU_COMMON_INC_EE_IRQSTUB_H
ARM GAS  C:\Users\DHEERA~1\AppData\Local\Temp\ccbAcITh.s 			page 12


  60:Generated_Source\PSoC5/Erika_OS_common_ee_irqstub.inc **** #define PKG_CPU_COMMON_INC_EE_IRQSTUB_H
  61:Generated_Source\PSoC5/Erika_OS_common_ee_irqstub.inc **** 
  62:Generated_Source\PSoC5/Erika_OS_common_ee_irqstub.inc **** /* this bring EE_IRQ_nesting_level definition */
  63:Generated_Source\PSoC5/Erika_OS_common_ee_irqstub.inc **** #include "Erika_OS_common_ee_primitives.inc"
  64:Generated_Source\PSoC5/Erika_OS_common_ee_irqstub.inc **** 
  65:Generated_Source\PSoC5/Erika_OS_common_ee_irqstub.inc **** /* True if we are inside an interrupt-serving routine */
  66:Generated_Source\PSoC5/Erika_OS_common_ee_irqstub.inc **** __INLINE__ EE_TYPEBOOL  EE_is_inside_ISR_call( void )
  67:Generated_Source\PSoC5/Erika_OS_common_ee_irqstub.inc **** {
  68:Generated_Source\PSoC5/Erika_OS_common_ee_irqstub.inc ****   return (EE_IRQ_nesting_level > 0U);
  69:Generated_Source\PSoC5/Erika_OS_common_ee_irqstub.inc **** }
  70:Generated_Source\PSoC5/Erika_OS_common_ee_irqstub.inc **** 
  71:Generated_Source\PSoC5/Erika_OS_common_ee_irqstub.inc **** 
  72:Generated_Source\PSoC5/Erika_OS_common_ee_irqstub.inc **** /* EE_decrement_IRQ_nesting_level() and EE_increment_IRQ_nesting_level() are
  73:Generated_Source\PSoC5/Erika_OS_common_ee_irqstub.inc ****  * used to keep track of the current IRQ nesting level.
  74:Generated_Source\PSoC5/Erika_OS_common_ee_irqstub.inc ****  * EE_std_enableIRQ_nested() and EE_std_disableIRQ_nested() are used to control
  75:Generated_Source\PSoC5/Erika_OS_common_ee_irqstub.inc ****  * when IRQ nesting is enabled.
  76:Generated_Source\PSoC5/Erika_OS_common_ee_irqstub.inc ****  */
  77:Generated_Source\PSoC5/Erika_OS_common_ee_irqstub.inc **** #if defined(__AS_SC4__)
  78:Generated_Source\PSoC5/Erika_OS_common_ee_irqstub.inc **** /* For SC4 the nesting level is updated inside the prestub and postub */
  79:Generated_Source\PSoC5/Erika_OS_common_ee_irqstub.inc **** __INLINE__ void  EE_decrement_IRQ_nesting_level(void) {}
  80:Generated_Source\PSoC5/Erika_OS_common_ee_irqstub.inc **** __INLINE__ void  EE_increment_IRQ_nesting_level(void) {}
  81:Generated_Source\PSoC5/Erika_OS_common_ee_irqstub.inc **** __INLINE__ void  EE_std_enableIRQ_nested(void) {}
  82:Generated_Source\PSoC5/Erika_OS_common_ee_irqstub.inc **** __INLINE__ void  EE_std_disableIRQ_nested(void) {}
  83:Generated_Source\PSoC5/Erika_OS_common_ee_irqstub.inc **** #elif defined(__ALLOW_NESTED_IRQ__)
  84:Generated_Source\PSoC5/Erika_OS_common_ee_irqstub.inc **** __INLINE__ void  EE_decrement_IRQ_nesting_level(void) { --EE_IRQ_nesting_level; }
  85:Generated_Source\PSoC5/Erika_OS_common_ee_irqstub.inc **** __INLINE__ void  EE_increment_IRQ_nesting_level(void) { ++EE_IRQ_nesting_level; }
 162              		.loc 3 85 0
 163 004e 114A     		ldr	r2, .L11+8
 164 0050 1368     		ldr	r3, [r2]
 165 0052 0133     		adds	r3, r3, #1
 166 0054 1360     		str	r3, [r2]
 167              	.LBE65:
 168              	.LBE64:
  20:main.c        **** {
 169              		.loc 1 20 0
 170 0056 012B     		cmp	r3, #1
 171 0058 01D1     		bne	.L8
  20:main.c        **** {
 172              		.loc 1 20 0 is_stmt 0 discriminator 1
 173 005a FFF7FEFF 		bl	EE_cortex_mx_change_IRQ_stack
 174              	.LVL12:
 175              	.L8:
 176              	.LBB66:
 177              	.LBB67:
 191:Generated_Source\PSoC5/Erika_OS_cortex_mx_ee_cpu.inc **** #endif	/* !__KEIL__ */
 178              		.loc 2 191 0 is_stmt 1 discriminator 3
 179              		.syntax unified
 180              	@ 191 "Generated_Source\PSoC5/Erika_OS_cortex_mx_ee_cpu.inc" 1
 181 005e 62B6     		cpsie i
 182              	@ 0 "" 2
 183              		.thumb
 184              		.syntax unified
 185              	.LBE67:
 186              	.LBE66:
  20:main.c        **** {
 187              		.loc 1 20 0 discriminator 3
 188 0060 FFF7FEFF 		bl	ISR2_systick_handler
ARM GAS  C:\Users\DHEERA~1\AppData\Local\Temp\ccbAcITh.s 			page 13


 189              	.LVL13:
 190              	.LBB68:
 191              	.LBB69:
 211:Generated_Source\PSoC5/Erika_OS_cortex_mx_ee_cpu.inc **** #endif	/* !__KEIL__ */
 192              		.loc 2 211 0 discriminator 3
 193              		.syntax unified
 194              	@ 211 "Generated_Source\PSoC5/Erika_OS_cortex_mx_ee_cpu.inc" 1
 195 0064 72B6     		cpsid i
 196              	@ 0 "" 2
 197              	.LVL14:
 198              		.thumb
 199              		.syntax unified
 200              	.LBE69:
 201              	.LBE68:
 202              	.LBB70:
 203              	.LBB71:
 358:Generated_Source\PSoC5/Erika_OS_cortex_mx_ee_cpu.inc **** #else
 204              		.loc 2 358 0 discriminator 3
 205              		.syntax unified
 206              	@ 358 "Generated_Source\PSoC5/Erika_OS_cortex_mx_ee_cpu.inc" 1
 207 0066 84F31188 		MSR BASEPRI, r4
 208              	@ 0 "" 2
 209              	.LVL15:
 210              		.thumb
 211              		.syntax unified
 212              	.LBE71:
 213              	.LBE70:
 214              	.LBB72:
 215              	.LBB73:
  86:Generated_Source\PSoC5/Erika_OS_common_ee_irqstub.inc **** /*  EE_std_enableIRQ_nested() and EE_std_disableIRQ_nested() must be defined in
  87:Generated_Source\PSoC5/Erika_OS_common_ee_irqstub.inc ****  *  the platform-dependent part, as they dependend on the particular way
  88:Generated_Source\PSoC5/Erika_OS_common_ee_irqstub.inc ****  *  interrupts are handled by the CPU. */
  89:Generated_Source\PSoC5/Erika_OS_common_ee_irqstub.inc **** #else
  90:Generated_Source\PSoC5/Erika_OS_common_ee_irqstub.inc **** __INLINE__ void  EE_decrement_IRQ_nesting_level(void) { EE_IRQ_nesting_level = 0U; }
  91:Generated_Source\PSoC5/Erika_OS_common_ee_irqstub.inc **** __INLINE__ void  EE_increment_IRQ_nesting_level(void) { EE_IRQ_nesting_level = 1U; }
  92:Generated_Source\PSoC5/Erika_OS_common_ee_irqstub.inc **** __INLINE__ void  EE_std_enableIRQ_nested(void) {}
  93:Generated_Source\PSoC5/Erika_OS_common_ee_irqstub.inc **** __INLINE__ void  EE_std_disableIRQ_nested(void) {}
  94:Generated_Source\PSoC5/Erika_OS_common_ee_irqstub.inc **** #endif
  95:Generated_Source\PSoC5/Erika_OS_common_ee_irqstub.inc **** 
  96:Generated_Source\PSoC5/Erika_OS_common_ee_irqstub.inc **** #if (defined(__OO_BCC1__)) || (defined(__OO_BCC2__)) || (defined(__OO_ECC1__)) \
  97:Generated_Source\PSoC5/Erika_OS_common_ee_irqstub.inc ****   || (defined(__OO_ECC2__)) || (defined(__AS_SC4__))
  98:Generated_Source\PSoC5/Erika_OS_common_ee_irqstub.inc **** /* Function to be called at the end of a function service interrupt, to execute
  99:Generated_Source\PSoC5/Erika_OS_common_ee_irqstub.inc ****    clean-up specifiend in Autosar standard */
 100:Generated_Source\PSoC5/Erika_OS_common_ee_irqstub.inc **** __INLINE__ void  EE_std_end_IRQ_post_stub(void)
 101:Generated_Source\PSoC5/Erika_OS_common_ee_irqstub.inc **** {
 102:Generated_Source\PSoC5/Erika_OS_common_ee_irqstub.inc ****   EE_IRQ_end_post_stub();
 216              		.loc 3 102 0 discriminator 3
 217 006a FFF7FEFF 		bl	EE_IRQ_end_post_stub
 218              	.LVL16:
 219              	.LBE73:
 220              	.LBE72:
 221              	.LBB74:
 222              	.LBB75:
  84:Generated_Source\PSoC5/Erika_OS_common_ee_irqstub.inc **** __INLINE__ void  EE_increment_IRQ_nesting_level(void) { ++EE_IRQ_nesting_level; }
 223              		.loc 3 84 0 discriminator 3
 224 006e 094A     		ldr	r2, .L11+8
 225 0070 1368     		ldr	r3, [r2]
ARM GAS  C:\Users\DHEERA~1\AppData\Local\Temp\ccbAcITh.s 			page 14


 226 0072 013B     		subs	r3, r3, #1
 227 0074 1360     		str	r3, [r2]
 228              	.LBE75:
 229              	.LBE74:
  20:main.c        **** {
 230              		.loc 1 20 0 discriminator 3
 231 0076 1BB9     		cbnz	r3, .L9
  20:main.c        **** {
 232              		.loc 1 20 0 is_stmt 0 discriminator 4
 233 0078 FFF7FEFF 		bl	EE_cortex_mx_change_IRQ_stack_back
 234              	.LVL17:
 235              	.LBB76:
 236              	.LBB77:
 237              		.file 4 "Generated_Source\\PSoC5/Erika_OS_cortex_mx_ee_irq_cng_cont.inc"
   1:Generated_Source\PSoC5/Erika_OS_cortex_mx_ee_irq_cng_cont.inc **** /* ###*B*###
   2:Generated_Source\PSoC5/Erika_OS_cortex_mx_ee_irq_cng_cont.inc ****  * ERIKA Enterprise - a tiny RTOS for small microcontrollers
   3:Generated_Source\PSoC5/Erika_OS_cortex_mx_ee_irq_cng_cont.inc ****  *
   4:Generated_Source\PSoC5/Erika_OS_cortex_mx_ee_irq_cng_cont.inc ****  * Copyright (C) 2002-2011  Evidence Srl
   5:Generated_Source\PSoC5/Erika_OS_cortex_mx_ee_irq_cng_cont.inc ****  *
   6:Generated_Source\PSoC5/Erika_OS_cortex_mx_ee_irq_cng_cont.inc ****  * This file is part of ERIKA Enterprise.
   7:Generated_Source\PSoC5/Erika_OS_cortex_mx_ee_irq_cng_cont.inc ****  *
   8:Generated_Source\PSoC5/Erika_OS_cortex_mx_ee_irq_cng_cont.inc ****  * ERIKA Enterprise is free software; you can redistribute it
   9:Generated_Source\PSoC5/Erika_OS_cortex_mx_ee_irq_cng_cont.inc ****  * and/or modify it under the terms of the GNU General Public License
  10:Generated_Source\PSoC5/Erika_OS_cortex_mx_ee_irq_cng_cont.inc ****  * version 2 as published by the Free Software Foundation, 
  11:Generated_Source\PSoC5/Erika_OS_cortex_mx_ee_irq_cng_cont.inc ****  * (with a special exception described below).
  12:Generated_Source\PSoC5/Erika_OS_cortex_mx_ee_irq_cng_cont.inc ****  *
  13:Generated_Source\PSoC5/Erika_OS_cortex_mx_ee_irq_cng_cont.inc ****  * Linking this code statically or dynamically with other modules is
  14:Generated_Source\PSoC5/Erika_OS_cortex_mx_ee_irq_cng_cont.inc ****  * making a combined work based on this code.  Thus, the terms and
  15:Generated_Source\PSoC5/Erika_OS_cortex_mx_ee_irq_cng_cont.inc ****  * conditions of the GNU General Public License cover the whole
  16:Generated_Source\PSoC5/Erika_OS_cortex_mx_ee_irq_cng_cont.inc ****  * combination.
  17:Generated_Source\PSoC5/Erika_OS_cortex_mx_ee_irq_cng_cont.inc ****  *
  18:Generated_Source\PSoC5/Erika_OS_cortex_mx_ee_irq_cng_cont.inc ****  * As a special exception, the copyright holders of this library give you
  19:Generated_Source\PSoC5/Erika_OS_cortex_mx_ee_irq_cng_cont.inc ****  * permission to link this code with independent modules to produce an
  20:Generated_Source\PSoC5/Erika_OS_cortex_mx_ee_irq_cng_cont.inc ****  * executable, regardless of the license terms of these independent
  21:Generated_Source\PSoC5/Erika_OS_cortex_mx_ee_irq_cng_cont.inc ****  * modules, and to copy and distribute the resulting executable under
  22:Generated_Source\PSoC5/Erika_OS_cortex_mx_ee_irq_cng_cont.inc ****  * terms of your choice, provided that you also meet, for each linked
  23:Generated_Source\PSoC5/Erika_OS_cortex_mx_ee_irq_cng_cont.inc ****  * independent module, the terms and conditions of the license of that
  24:Generated_Source\PSoC5/Erika_OS_cortex_mx_ee_irq_cng_cont.inc ****  * module.  An independent module is a module which is not derived from
  25:Generated_Source\PSoC5/Erika_OS_cortex_mx_ee_irq_cng_cont.inc ****  * or based on this library.  If you modify this code, you may extend
  26:Generated_Source\PSoC5/Erika_OS_cortex_mx_ee_irq_cng_cont.inc ****  * this exception to your version of the code, but you are not
  27:Generated_Source\PSoC5/Erika_OS_cortex_mx_ee_irq_cng_cont.inc ****  * obligated to do so.  If you do not wish to do so, delete this
  28:Generated_Source\PSoC5/Erika_OS_cortex_mx_ee_irq_cng_cont.inc ****  * exception statement from your version.
  29:Generated_Source\PSoC5/Erika_OS_cortex_mx_ee_irq_cng_cont.inc ****  *
  30:Generated_Source\PSoC5/Erika_OS_cortex_mx_ee_irq_cng_cont.inc ****  * ERIKA Enterprise is distributed in the hope that it will be
  31:Generated_Source\PSoC5/Erika_OS_cortex_mx_ee_irq_cng_cont.inc ****  * useful, but WITHOUT ANY WARRANTY; without even the implied warranty
  32:Generated_Source\PSoC5/Erika_OS_cortex_mx_ee_irq_cng_cont.inc ****  * of MERCHANTABILITY or FITNESS FOR A PARTICULAR PURPOSE.  See the
  33:Generated_Source\PSoC5/Erika_OS_cortex_mx_ee_irq_cng_cont.inc ****  * GNU General Public License version 2 for more details.
  34:Generated_Source\PSoC5/Erika_OS_cortex_mx_ee_irq_cng_cont.inc ****  *
  35:Generated_Source\PSoC5/Erika_OS_cortex_mx_ee_irq_cng_cont.inc ****  * You should have received a copy of the GNU General Public License
  36:Generated_Source\PSoC5/Erika_OS_cortex_mx_ee_irq_cng_cont.inc ****  * version 2 along with ERIKA Enterprise; if not, write to the
  37:Generated_Source\PSoC5/Erika_OS_cortex_mx_ee_irq_cng_cont.inc ****  * Free Software Foundation, Inc., 51 Franklin Street, Fifth Floor,
  38:Generated_Source\PSoC5/Erika_OS_cortex_mx_ee_irq_cng_cont.inc ****  * Boston, MA 02110-1301 USA.
  39:Generated_Source\PSoC5/Erika_OS_cortex_mx_ee_irq_cng_cont.inc ****  * ###*E*### */
  40:Generated_Source\PSoC5/Erika_OS_cortex_mx_ee_irq_cng_cont.inc **** 
  41:Generated_Source\PSoC5/Erika_OS_cortex_mx_ee_irq_cng_cont.inc ****  /** 
  42:Generated_Source\PSoC5/Erika_OS_cortex_mx_ee_irq_cng_cont.inc **** 	
  43:Generated_Source\PSoC5/Erika_OS_cortex_mx_ee_irq_cng_cont.inc **** 	@file	ee_irq_cng_cont.h
ARM GAS  C:\Users\DHEERA~1\AppData\Local\Temp\ccbAcITh.s 			page 15


  44:Generated_Source\PSoC5/Erika_OS_cortex_mx_ee_irq_cng_cont.inc **** 	@brief	Function active the context change interrupt
  45:Generated_Source\PSoC5/Erika_OS_cortex_mx_ee_irq_cng_cont.inc **** 	@author	Gianluca Franchino
  46:Generated_Source\PSoC5/Erika_OS_cortex_mx_ee_irq_cng_cont.inc **** 	@author	Giuseppe Serano
  47:Generated_Source\PSoC5/Erika_OS_cortex_mx_ee_irq_cng_cont.inc **** 	@date	2012
  48:Generated_Source\PSoC5/Erika_OS_cortex_mx_ee_irq_cng_cont.inc **** */ 
  49:Generated_Source\PSoC5/Erika_OS_cortex_mx_ee_irq_cng_cont.inc ****     
  50:Generated_Source\PSoC5/Erika_OS_cortex_mx_ee_irq_cng_cont.inc **** /*
  51:Generated_Source\PSoC5/Erika_OS_cortex_mx_ee_irq_cng_cont.inc ****  * PSoC Port and API Generation
  52:Generated_Source\PSoC5/Erika_OS_cortex_mx_ee_irq_cng_cont.inc ****  * Carlos Fernando Meier Martinez
  53:Generated_Source\PSoC5/Erika_OS_cortex_mx_ee_irq_cng_cont.inc ****  * Hochschule Darmstadt, Germany. 2017.
  54:Generated_Source\PSoC5/Erika_OS_cortex_mx_ee_irq_cng_cont.inc ****  */
  55:Generated_Source\PSoC5/Erika_OS_cortex_mx_ee_irq_cng_cont.inc **** 
  56:Generated_Source\PSoC5/Erika_OS_cortex_mx_ee_irq_cng_cont.inc **** #ifndef __INCLUDE_CORTEX_MX_IRQ_CNG_CONTEXT_H__
  57:Generated_Source\PSoC5/Erika_OS_cortex_mx_ee_irq_cng_cont.inc **** #define __INCLUDE_CORTEX_MX_IRQ_CNG_CONTEXT_H__
  58:Generated_Source\PSoC5/Erika_OS_cortex_mx_ee_irq_cng_cont.inc **** 
  59:Generated_Source\PSoC5/Erika_OS_cortex_mx_ee_irq_cng_cont.inc **** #ifdef __GNU__
  60:Generated_Source\PSoC5/Erika_OS_cortex_mx_ee_irq_cng_cont.inc **** #include "Erika_OS_common_ee_compiler_gcc.inc"
  61:Generated_Source\PSoC5/Erika_OS_cortex_mx_ee_irq_cng_cont.inc **** #endif
  62:Generated_Source\PSoC5/Erika_OS_cortex_mx_ee_irq_cng_cont.inc **** 
  63:Generated_Source\PSoC5/Erika_OS_cortex_mx_ee_irq_cng_cont.inc **** /* Implemented in ee_<compiler>_change_context_isr.s */
  64:Generated_Source\PSoC5/Erika_OS_cortex_mx_ee_irq_cng_cont.inc **** extern void EE_switch_context(void);
  65:Generated_Source\PSoC5/Erika_OS_cortex_mx_ee_irq_cng_cont.inc **** 
  66:Generated_Source\PSoC5/Erika_OS_cortex_mx_ee_irq_cng_cont.inc **** __INLINE__ void  EE_cortex_mx_IRQ_active_change_context(void)
  67:Generated_Source\PSoC5/Erika_OS_cortex_mx_ee_irq_cng_cont.inc **** {
  68:Generated_Source\PSoC5/Erika_OS_cortex_mx_ee_irq_cng_cont.inc **** 	EE_switch_context();
 238              		.loc 4 68 0 is_stmt 1 discriminator 4
 239 007c FFF7FEFF 		bl	EE_switch_context
 240              	.LVL18:
 241              	.L9:
 242              	.LBE77:
 243              	.LBE76:
 244              	.LBB78:
 245              	.LBB79:
 191:Generated_Source\PSoC5/Erika_OS_cortex_mx_ee_cpu.inc **** #endif	/* !__KEIL__ */
 246              		.loc 2 191 0 discriminator 6
 247              		.syntax unified
 248              	@ 191 "Generated_Source\PSoC5/Erika_OS_cortex_mx_ee_cpu.inc" 1
 249 0080 62B6     		cpsie i
 250              	@ 0 "" 2
 251              		.thumb
 252              		.syntax unified
 253              	.LBE79:
 254              	.LBE78:
  20:main.c        **** {
 255              		.loc 1 20 0 discriminator 6
 256 0082 BDE81940 		pop	{r0, r3, r4, lr}
 257              		.cfi_restore 14
 258              		.cfi_restore 4
 259              		.cfi_restore 3
 260              		.cfi_restore 0
 261              		.cfi_def_cfa_offset 0
 262 0086 8546     		mov	sp, r0
 263 0088 7047     		bx	lr
 264              	.L12:
 265 008a 00BF     		.align	2
 266              	.L11:
 267 008c 04ED00E0 		.word	-536810236
ARM GAS  C:\Users\DHEERA~1\AppData\Local\Temp\ccbAcITh.s 			page 16


 268 0090 20ED00E0 		.word	-536810208
 269 0094 00000000 		.word	EE_IRQ_nesting_level
 270              		.cfi_endproc
 271              	.LFE110:
 272              		.size	systick_handler, .-systick_handler
 273              		.section	.text.main,"ax",%progbits
 274              		.align	2
 275              		.global	main
 276              		.thumb
 277              		.thumb_func
 278              		.type	main, %function
 279              	main:
 280              	.LFB112:
  24:main.c        **** }
  25:main.c        **** 
  26:main.c        **** int main(void)
  27:main.c        **** {
 281              		.loc 1 27 0
 282              		.cfi_startproc
 283              		@ Volatile: function does not return.
 284              		@ args = 0, pretend = 0, frame = 0
 285              		@ frame_needed = 0, uses_anonymous_args = 0
 286 0000 08B5     		push	{r3, lr}
 287              		.cfi_def_cfa_offset 8
 288              		.cfi_offset 3, -8
 289              		.cfi_offset 14, -4
  28:main.c        ****     CyGlobalIntEnable; /* Enable global interrupts. */
 290              		.loc 1 28 0
 291              		.syntax unified
 292              	@ 28 "main.c" 1
 293 0002 62B6     		CPSIE   i
 294              	@ 0 "" 2
 295              	.LVL19:
 296              		.thumb
 297              		.syntax unified
 298              	.LBB80:
 299              	.LBB81:
 300              		.file 5 "Generated_Source\\PSoC5/Erika_OS_cortex_mx_ee_systick.inc"
   1:Generated_Source\PSoC5/Erika_OS_cortex_mx_ee_systick.inc **** /* ###*B*###
   2:Generated_Source\PSoC5/Erika_OS_cortex_mx_ee_systick.inc ****  * ERIKA Enterprise - a tiny RTOS for small microcontrollers
   3:Generated_Source\PSoC5/Erika_OS_cortex_mx_ee_systick.inc ****  *
   4:Generated_Source\PSoC5/Erika_OS_cortex_mx_ee_systick.inc ****  * Copyright (C) 2002-2012  Evidence Srl
   5:Generated_Source\PSoC5/Erika_OS_cortex_mx_ee_systick.inc ****  *
   6:Generated_Source\PSoC5/Erika_OS_cortex_mx_ee_systick.inc ****  * This file is part of ERIKA Enterprise.
   7:Generated_Source\PSoC5/Erika_OS_cortex_mx_ee_systick.inc ****  *
   8:Generated_Source\PSoC5/Erika_OS_cortex_mx_ee_systick.inc ****  * ERIKA Enterprise is free software; you can redistribute it
   9:Generated_Source\PSoC5/Erika_OS_cortex_mx_ee_systick.inc ****  * and/or modify it under the terms of the GNU General Public License
  10:Generated_Source\PSoC5/Erika_OS_cortex_mx_ee_systick.inc ****  * version 2 as published by the Free Software Foundation,
  11:Generated_Source\PSoC5/Erika_OS_cortex_mx_ee_systick.inc ****  * (with a special exception described below).
  12:Generated_Source\PSoC5/Erika_OS_cortex_mx_ee_systick.inc ****  *
  13:Generated_Source\PSoC5/Erika_OS_cortex_mx_ee_systick.inc ****  * Linking this code statically or dynamically with other modules is
  14:Generated_Source\PSoC5/Erika_OS_cortex_mx_ee_systick.inc ****  * making a combined work based on this code.  Thus, the terms and
  15:Generated_Source\PSoC5/Erika_OS_cortex_mx_ee_systick.inc ****  * conditions of the GNU General Public License cover the whole
  16:Generated_Source\PSoC5/Erika_OS_cortex_mx_ee_systick.inc ****  * combination.
  17:Generated_Source\PSoC5/Erika_OS_cortex_mx_ee_systick.inc ****  *
  18:Generated_Source\PSoC5/Erika_OS_cortex_mx_ee_systick.inc ****  * As a special exception, the copyright holders of this library give you
  19:Generated_Source\PSoC5/Erika_OS_cortex_mx_ee_systick.inc ****  * permission to link this code with independent modules to produce an
ARM GAS  C:\Users\DHEERA~1\AppData\Local\Temp\ccbAcITh.s 			page 17


  20:Generated_Source\PSoC5/Erika_OS_cortex_mx_ee_systick.inc ****  * executable, regardless of the license terms of these independent
  21:Generated_Source\PSoC5/Erika_OS_cortex_mx_ee_systick.inc ****  * modules, and to copy and distribute the resulting executable under
  22:Generated_Source\PSoC5/Erika_OS_cortex_mx_ee_systick.inc ****  * terms of your choice, provided that you also meet, for each linked
  23:Generated_Source\PSoC5/Erika_OS_cortex_mx_ee_systick.inc ****  * independent module, the terms and conditions of the license of that
  24:Generated_Source\PSoC5/Erika_OS_cortex_mx_ee_systick.inc ****  * module.  An independent module is a module which is not derived from
  25:Generated_Source\PSoC5/Erika_OS_cortex_mx_ee_systick.inc ****  * or based on this library.  If you modify this code, you may extend
  26:Generated_Source\PSoC5/Erika_OS_cortex_mx_ee_systick.inc ****  * this exception to your version of the code, but you are not
  27:Generated_Source\PSoC5/Erika_OS_cortex_mx_ee_systick.inc ****  * obligated to do so.  If you do not wish to do so, delete this
  28:Generated_Source\PSoC5/Erika_OS_cortex_mx_ee_systick.inc ****  * exception statement from your version.
  29:Generated_Source\PSoC5/Erika_OS_cortex_mx_ee_systick.inc ****  *
  30:Generated_Source\PSoC5/Erika_OS_cortex_mx_ee_systick.inc ****  * ERIKA Enterprise is distributed in the hope that it will be
  31:Generated_Source\PSoC5/Erika_OS_cortex_mx_ee_systick.inc ****  * useful, but WITHOUT ANY WARRANTY; without even the implied warranty
  32:Generated_Source\PSoC5/Erika_OS_cortex_mx_ee_systick.inc ****  * of MERCHANTABILITY or FITNESS FOR A PARTICULAR PURPOSE.  See the
  33:Generated_Source\PSoC5/Erika_OS_cortex_mx_ee_systick.inc ****  * GNU General Public License version 2 for more details.
  34:Generated_Source\PSoC5/Erika_OS_cortex_mx_ee_systick.inc ****  *
  35:Generated_Source\PSoC5/Erika_OS_cortex_mx_ee_systick.inc ****  * You should have received a copy of the GNU General Public License
  36:Generated_Source\PSoC5/Erika_OS_cortex_mx_ee_systick.inc ****  * version 2 along with ERIKA Enterprise; if not, write to the
  37:Generated_Source\PSoC5/Erika_OS_cortex_mx_ee_systick.inc ****  * Free Software Foundation, Inc., 51 Franklin Street, Fifth Floor,
  38:Generated_Source\PSoC5/Erika_OS_cortex_mx_ee_systick.inc ****  * Boston, MA 02110-1301 USA.
  39:Generated_Source\PSoC5/Erika_OS_cortex_mx_ee_systick.inc ****  * ###*E*### */
  40:Generated_Source\PSoC5/Erika_OS_cortex_mx_ee_systick.inc **** 
  41:Generated_Source\PSoC5/Erika_OS_cortex_mx_ee_systick.inc **** /**
  42:Generated_Source\PSoC5/Erika_OS_cortex_mx_ee_systick.inc ****     @file	ee_systick.h
  43:Generated_Source\PSoC5/Erika_OS_cortex_mx_ee_systick.inc ****     @brief	SysTick system timer driver header file.
  44:Generated_Source\PSoC5/Erika_OS_cortex_mx_ee_systick.inc ****     @author	Giuseppe Serano
  45:Generated_Source\PSoC5/Erika_OS_cortex_mx_ee_systick.inc ****     @date	2012
  46:Generated_Source\PSoC5/Erika_OS_cortex_mx_ee_systick.inc **** 
  47:Generated_Source\PSoC5/Erika_OS_cortex_mx_ee_systick.inc **** **/
  48:Generated_Source\PSoC5/Erika_OS_cortex_mx_ee_systick.inc **** 
  49:Generated_Source\PSoC5/Erika_OS_cortex_mx_ee_systick.inc **** /*
  50:Generated_Source\PSoC5/Erika_OS_cortex_mx_ee_systick.inc ****  * PSoC Port and API Generation
  51:Generated_Source\PSoC5/Erika_OS_cortex_mx_ee_systick.inc ****  * Carlos Fernando Meier Martinez
  52:Generated_Source\PSoC5/Erika_OS_cortex_mx_ee_systick.inc ****  * Hochschule Darmstadt, Germany. 2017.
  53:Generated_Source\PSoC5/Erika_OS_cortex_mx_ee_systick.inc ****  */
  54:Generated_Source\PSoC5/Erika_OS_cortex_mx_ee_systick.inc **** 
  55:Generated_Source\PSoC5/Erika_OS_cortex_mx_ee_systick.inc **** #ifndef	__INCLUDE_CORTEX_MX_SYSTICK_H__
  56:Generated_Source\PSoC5/Erika_OS_cortex_mx_ee_systick.inc **** #define	__INCLUDE_CORTEX_MX_SYSTICK_H__
  57:Generated_Source\PSoC5/Erika_OS_cortex_mx_ee_systick.inc **** 
  58:Generated_Source\PSoC5/Erika_OS_cortex_mx_ee_systick.inc **** #ifdef	__USE_SYSTICK__
  59:Generated_Source\PSoC5/Erika_OS_cortex_mx_ee_systick.inc **** 
  60:Generated_Source\PSoC5/Erika_OS_cortex_mx_ee_systick.inc **** /** error value. No errors happened **/
  61:Generated_Source\PSoC5/Erika_OS_cortex_mx_ee_systick.inc **** #define	EE_SYSTICK_NO_ERRORS	0
  62:Generated_Source\PSoC5/Erika_OS_cortex_mx_ee_systick.inc **** /** error value. Wrong funtion arguments values **/
  63:Generated_Source\PSoC5/Erika_OS_cortex_mx_ee_systick.inc **** #define	EE_SYSTICK_ERR_BAD_ARGS	1
  64:Generated_Source\PSoC5/Erika_OS_cortex_mx_ee_systick.inc **** 
  65:Generated_Source\PSoC5/Erika_OS_cortex_mx_ee_systick.inc **** /**
  66:Generated_Source\PSoC5/Erika_OS_cortex_mx_ee_systick.inc ****     @brief Start SysTick.
  67:Generated_Source\PSoC5/Erika_OS_cortex_mx_ee_systick.inc **** 
  68:Generated_Source\PSoC5/Erika_OS_cortex_mx_ee_systick.inc ****     This will start the SysTick counter.  If an ISR has been defined, it is
  69:Generated_Source\PSoC5/Erika_OS_cortex_mx_ee_systick.inc ****     called when the SysTick counter rolls over.
  70:Generated_Source\PSoC5/Erika_OS_cortex_mx_ee_systick.inc **** 
  71:Generated_Source\PSoC5/Erika_OS_cortex_mx_ee_systick.inc ****     @note Calling this function will cause the SysTick counter to (re)commence
  72:Generated_Source\PSoC5/Erika_OS_cortex_mx_ee_systick.inc ****     counting from its current value.  The counter is not automatically reloaded
  73:Generated_Source\PSoC5/Erika_OS_cortex_mx_ee_systick.inc ****     with the period as specified in a previous call to EE_systick_set_period().
  74:Generated_Source\PSoC5/Erika_OS_cortex_mx_ee_systick.inc ****     If an immediate reload is required, the \b NVIC_ST_CURRENT register must be
  75:Generated_Source\PSoC5/Erika_OS_cortex_mx_ee_systick.inc ****     written to force this.  Any write to this register clears the SysTick
  76:Generated_Source\PSoC5/Erika_OS_cortex_mx_ee_systick.inc ****     counter to 0 and will cause a reload with the supplied period on the next
ARM GAS  C:\Users\DHEERA~1\AppData\Local\Temp\ccbAcITh.s 			page 18


  77:Generated_Source\PSoC5/Erika_OS_cortex_mx_ee_systick.inc ****     clock.
  78:Generated_Source\PSoC5/Erika_OS_cortex_mx_ee_systick.inc ****  */
  79:Generated_Source\PSoC5/Erika_OS_cortex_mx_ee_systick.inc **** __INLINE__ void  EE_systick_start(void)
  80:Generated_Source\PSoC5/Erika_OS_cortex_mx_ee_systick.inc **** {
  81:Generated_Source\PSoC5/Erika_OS_cortex_mx_ee_systick.inc ****   NVIC_ST_CTRL_R |= NVIC_ST_CTRL_CLK_SRC | NVIC_ST_CTRL_ENABLE;
  82:Generated_Source\PSoC5/Erika_OS_cortex_mx_ee_systick.inc **** }
  83:Generated_Source\PSoC5/Erika_OS_cortex_mx_ee_systick.inc **** 
  84:Generated_Source\PSoC5/Erika_OS_cortex_mx_ee_systick.inc **** /**
  85:Generated_Source\PSoC5/Erika_OS_cortex_mx_ee_systick.inc ****     @brief Stop SysTick.
  86:Generated_Source\PSoC5/Erika_OS_cortex_mx_ee_systick.inc **** 
  87:Generated_Source\PSoC5/Erika_OS_cortex_mx_ee_systick.inc ****     This will stop the SysTick counter.  If an ISR has been defined, it will
  88:Generated_Source\PSoC5/Erika_OS_cortex_mx_ee_systick.inc ****     no longer be called until SysTick is restarted.
  89:Generated_Source\PSoC5/Erika_OS_cortex_mx_ee_systick.inc **** */
  90:Generated_Source\PSoC5/Erika_OS_cortex_mx_ee_systick.inc **** __INLINE__ void  EE_systick_stop(void)
  91:Generated_Source\PSoC5/Erika_OS_cortex_mx_ee_systick.inc **** {
  92:Generated_Source\PSoC5/Erika_OS_cortex_mx_ee_systick.inc ****   NVIC_ST_CTRL_R &= ~(NVIC_ST_CTRL_ENABLE);
  93:Generated_Source\PSoC5/Erika_OS_cortex_mx_ee_systick.inc **** }
  94:Generated_Source\PSoC5/Erika_OS_cortex_mx_ee_systick.inc **** 
  95:Generated_Source\PSoC5/Erika_OS_cortex_mx_ee_systick.inc **** /**
  96:Generated_Source\PSoC5/Erika_OS_cortex_mx_ee_systick.inc ****     @brief Enables the SysTick interrupt.
  97:Generated_Source\PSoC5/Erika_OS_cortex_mx_ee_systick.inc **** 
  98:Generated_Source\PSoC5/Erika_OS_cortex_mx_ee_systick.inc ****     This function will enable the SysTick interrupt, allowing it to be
  99:Generated_Source\PSoC5/Erika_OS_cortex_mx_ee_systick.inc ****     reflected to the processor.
 100:Generated_Source\PSoC5/Erika_OS_cortex_mx_ee_systick.inc **** 
 101:Generated_Source\PSoC5/Erika_OS_cortex_mx_ee_systick.inc ****     @note The SysTick ISR does not need to clear the SysTick interrupt source as
 102:Generated_Source\PSoC5/Erika_OS_cortex_mx_ee_systick.inc ****     this is done automatically by NVIC when the interrupt ISR is called.
 103:Generated_Source\PSoC5/Erika_OS_cortex_mx_ee_systick.inc ****  */
 104:Generated_Source\PSoC5/Erika_OS_cortex_mx_ee_systick.inc **** __INLINE__ void  EE_systick_enable_int()
 105:Generated_Source\PSoC5/Erika_OS_cortex_mx_ee_systick.inc **** {
 106:Generated_Source\PSoC5/Erika_OS_cortex_mx_ee_systick.inc ****   NVIC_ST_CTRL_R |= NVIC_ST_CTRL_INTEN;
 107:Generated_Source\PSoC5/Erika_OS_cortex_mx_ee_systick.inc **** }
 108:Generated_Source\PSoC5/Erika_OS_cortex_mx_ee_systick.inc **** 
 109:Generated_Source\PSoC5/Erika_OS_cortex_mx_ee_systick.inc **** /**
 110:Generated_Source\PSoC5/Erika_OS_cortex_mx_ee_systick.inc ****     @brief Disables the SysTick interrupt.
 111:Generated_Source\PSoC5/Erika_OS_cortex_mx_ee_systick.inc **** 
 112:Generated_Source\PSoC5/Erika_OS_cortex_mx_ee_systick.inc ****     This function will disable the SysTick interrupt, preventing it from being
 113:Generated_Source\PSoC5/Erika_OS_cortex_mx_ee_systick.inc ****     reflected to the processor.
 114:Generated_Source\PSoC5/Erika_OS_cortex_mx_ee_systick.inc ****  */
 115:Generated_Source\PSoC5/Erika_OS_cortex_mx_ee_systick.inc **** __INLINE__ void  EE_systick_disable_int()
 116:Generated_Source\PSoC5/Erika_OS_cortex_mx_ee_systick.inc **** {
 117:Generated_Source\PSoC5/Erika_OS_cortex_mx_ee_systick.inc ****   NVIC_ST_CTRL_R &= ~(NVIC_ST_CTRL_INTEN);
 118:Generated_Source\PSoC5/Erika_OS_cortex_mx_ee_systick.inc **** }
 119:Generated_Source\PSoC5/Erika_OS_cortex_mx_ee_systick.inc **** 
 120:Generated_Source\PSoC5/Erika_OS_cortex_mx_ee_systick.inc **** /**
 121:Generated_Source\PSoC5/Erika_OS_cortex_mx_ee_systick.inc ****     @brief Sets the period of the SysTick counter.
 122:Generated_Source\PSoC5/Erika_OS_cortex_mx_ee_systick.inc **** 
 123:Generated_Source\PSoC5/Erika_OS_cortex_mx_ee_systick.inc ****     @param period is the number of clock ticks in each period of the SysTick
 124:Generated_Source\PSoC5/Erika_OS_cortex_mx_ee_systick.inc ****     counter; must be between 1 and 16,777,216, inclusive. If the \e period is
 125:Generated_Source\PSoC5/Erika_OS_cortex_mx_ee_systick.inc ****     out of range the function returns \b EE_SYSTICK_ERR_BAD_ARGS, else it will
 126:Generated_Source\PSoC5/Erika_OS_cortex_mx_ee_systick.inc ****     returns \b EE_SYSTICK_NO_ERRORS.
 127:Generated_Source\PSoC5/Erika_OS_cortex_mx_ee_systick.inc **** 
 128:Generated_Source\PSoC5/Erika_OS_cortex_mx_ee_systick.inc ****     This function sets the rate at which the SysTick counter wraps; this
 129:Generated_Source\PSoC5/Erika_OS_cortex_mx_ee_systick.inc ****     equates to the number of processor clocks between interrupts.
 130:Generated_Source\PSoC5/Erika_OS_cortex_mx_ee_systick.inc **** 
 131:Generated_Source\PSoC5/Erika_OS_cortex_mx_ee_systick.inc ****     @note Calling this function does not cause the SysTick counter to reload
 132:Generated_Source\PSoC5/Erika_OS_cortex_mx_ee_systick.inc ****     immediately.  If an immediate reload is required, the \b NVIC_ST_CURRENT
 133:Generated_Source\PSoC5/Erika_OS_cortex_mx_ee_systick.inc ****     register must be written.  Any write to this register clears the SysTick
ARM GAS  C:\Users\DHEERA~1\AppData\Local\Temp\ccbAcITh.s 			page 19


 134:Generated_Source\PSoC5/Erika_OS_cortex_mx_ee_systick.inc ****     counter to 0 and will cause a reload with the \e period supplied here on
 135:Generated_Source\PSoC5/Erika_OS_cortex_mx_ee_systick.inc ****     the next clock after the SysTick is enabled.
 136:Generated_Source\PSoC5/Erika_OS_cortex_mx_ee_systick.inc ****  */
 137:Generated_Source\PSoC5/Erika_OS_cortex_mx_ee_systick.inc **** __INLINE__ EE_UREG  EE_systick_set_period(EE_UREG period)
 138:Generated_Source\PSoC5/Erika_OS_cortex_mx_ee_systick.inc **** {
 139:Generated_Source\PSoC5/Erika_OS_cortex_mx_ee_systick.inc ****   if ((period == NVIC_ST_RELOAD_S) || (period > NVIC_ST_RELOAD_M))
 140:Generated_Source\PSoC5/Erika_OS_cortex_mx_ee_systick.inc ****     return EE_SYSTICK_ERR_BAD_ARGS;
 141:Generated_Source\PSoC5/Erika_OS_cortex_mx_ee_systick.inc **** 
 142:Generated_Source\PSoC5/Erika_OS_cortex_mx_ee_systick.inc ****   NVIC_ST_RELOAD_R = period - 1;
 301              		.loc 5 142 0
 302 0004 45F6BF52 		movw	r2, #23999
 303 0008 064B     		ldr	r3, .L16
 304 000a 1A60     		str	r2, [r3]
 305              	.LVL20:
 306              	.LBE81:
 307              	.LBE80:
 308              	.LBB82:
 309              	.LBB83:
 106:Generated_Source\PSoC5/Erika_OS_cortex_mx_ee_systick.inc **** }
 310              		.loc 5 106 0
 311 000c 064A     		ldr	r2, .L16+4
 312 000e 1368     		ldr	r3, [r2]
 313 0010 43F00203 		orr	r3, r3, #2
 314 0014 1360     		str	r3, [r2]
 315              	.LBE83:
 316              	.LBE82:
  29:main.c        ****     EE_systick_set_period(MILLISECONDS_TO_TICKS(1, BCLK__BUS_CLK__HZ));
  30:main.c        **** 	EE_systick_enable_int();
  31:main.c        ****     UART_LOG_Start();
 317              		.loc 1 31 0
 318 0016 FFF7FEFF 		bl	UART_LOG_Start
 319              	.LVL21:
  32:main.c        ****     
  33:main.c        ****     StartOS(OSDEFAULTAPPMODE);
 320              		.loc 1 33 0
 321 001a 0020     		movs	r0, #0
 322 001c FFF7FEFF 		bl	EE_oo_StartOS
 323              	.LVL22:
 324              	.L14:
 325 0020 FEE7     		b	.L14
 326              	.L17:
 327 0022 00BF     		.align	2
 328              	.L16:
 329 0024 14E000E0 		.word	-536813548
 330 0028 10E000E0 		.word	-536813552
 331              		.cfi_endproc
 332              	.LFE112:
 333              		.size	main, .-main
 334              		.section	.text.Functsk_init,"ax",%progbits
 335              		.align	2
 336              		.global	Functsk_init
 337              		.thumb
 338              		.thumb_func
 339              		.type	Functsk_init, %function
 340              	Functsk_init:
 341              	.LFB113:
  34:main.c        ****     for(;;)
ARM GAS  C:\Users\DHEERA~1\AppData\Local\Temp\ccbAcITh.s 			page 20


  35:main.c        ****     {  
  36:main.c        ****     }
  37:main.c        **** }
  38:main.c        **** 
  39:main.c        **** TASK(tsk_init)
  40:main.c        **** {
 342              		.loc 1 40 0
 343              		.cfi_startproc
 344              		@ args = 0, pretend = 0, frame = 0
 345              		@ frame_needed = 0, uses_anonymous_args = 0
 346 0000 10B5     		push	{r4, lr}
 347              		.cfi_def_cfa_offset 8
 348              		.cfi_offset 4, -8
 349              		.cfi_offset 14, -4
  41:main.c        ****     //Initialising MCAL Drivers
  42:main.c        ****     SEVEN_Init();
 350              		.loc 1 42 0
 351 0002 FFF7FEFF 		bl	SEVEN_Init
 352              	.LVL23:
  43:main.c        ****     PWM_red_Start();
 353              		.loc 1 43 0
 354 0006 FFF7FEFF 		bl	PWM_red_Start
 355              	.LVL24:
  44:main.c        ****     PWM_yellow_Start();
 356              		.loc 1 44 0
 357 000a FFF7FEFF 		bl	PWM_yellow_Start
 358              	.LVL25:
  45:main.c        ****     PWM_green_Start();
 359              		.loc 1 45 0
 360 000e FFF7FEFF 		bl	PWM_green_Start
 361              	.LVL26:
  46:main.c        ****     RGB_PWM_blue_Start();
 362              		.loc 1 46 0
 363 0012 FFF7FEFF 		bl	RGB_PWM_blue_Start
 364              	.LVL27:
  47:main.c        ****     RGB_PWM_green_Start();
 365              		.loc 1 47 0
 366 0016 FFF7FEFF 		bl	RGB_PWM_green_Start
 367              	.LVL28:
  48:main.c        ****     RGB_PWM_red_Start();
 368              		.loc 1 48 0
 369 001a FFF7FEFF 		bl	RGB_PWM_red_Start
 370              	.LVL29:
  49:main.c        ****     
  50:main.c        ****     EE_system_init();
 371              		.loc 1 50 0
 372 001e FFF7FEFF 		bl	EE_system_init
 373              	.LVL30:
 374              	.LBB84:
 375              	.LBB85:
  81:Generated_Source\PSoC5/Erika_OS_cortex_mx_ee_systick.inc **** }
 376              		.loc 5 81 0
 377 0022 104A     		ldr	r2, .L20
 378 0024 1368     		ldr	r3, [r2]
 379 0026 43F00503 		orr	r3, r3, #5
 380 002a 1360     		str	r3, [r2]
 381              	.LBE85:
ARM GAS  C:\Users\DHEERA~1\AppData\Local\Temp\ccbAcITh.s 			page 21


 382              	.LBE84:
  51:main.c        ****     EE_systick_start();
  52:main.c        ****     UART_LOG_PutString("Welcome to Reaction Game\r\n");
 383              		.loc 1 52 0
 384 002c 0E48     		ldr	r0, .L20+4
 385 002e FFF7FEFF 		bl	UART_LOG_PutString
 386              	.LVL31:
  53:main.c        ****     UART_LOG_PutString("\r\n");
 387              		.loc 1 53 0
 388 0032 0E4C     		ldr	r4, .L20+8
 389 0034 2046     		mov	r0, r4
 390 0036 FFF7FEFF 		bl	UART_LOG_PutString
 391              	.LVL32:
  54:main.c        ****     
  55:main.c        ****     UART_LOG_PutString("Reaction test program round: 1\r\n");
 392              		.loc 1 55 0
 393 003a 0D48     		ldr	r0, .L20+12
 394 003c FFF7FEFF 		bl	UART_LOG_PutString
 395              	.LVL33:
  56:main.c        ****     UART_LOG_PutString("Press one of the two buttons to start...\r\n");
 396              		.loc 1 56 0
 397 0040 0C48     		ldr	r0, .L20+16
 398 0042 FFF7FEFF 		bl	UART_LOG_PutString
 399              	.LVL34:
  57:main.c        ****     UART_LOG_PutString("\r\n");
 400              		.loc 1 57 0
 401 0046 2046     		mov	r0, r4
 402 0048 FFF7FEFF 		bl	UART_LOG_PutString
 403              	.LVL35:
  58:main.c        ****     
  59:main.c        ****     ActivateTask(tsk_event);
 404              		.loc 1 59 0
 405 004c 0120     		movs	r0, #1
 406 004e FFF7FEFF 		bl	EE_oo_ActivateTask
 407              	.LVL36:
  60:main.c        ****     
  61:main.c        ****     //SetRelAlarm(alrm_glower, 100, 100); //Activating alarm for Glower which will trigger task glo
  62:main.c        ****     //SetRelAlarm(alrm_fader, 100, 100);  //Activating alarm for Fader which will trigger task fade
  63:main.c        ****     
  64:main.c        ****     ActivateTask(tsk_fader);
 408              		.loc 1 64 0
 409 0052 0320     		movs	r0, #3
 410 0054 FFF7FEFF 		bl	EE_oo_ActivateTask
 411              	.LVL37:
  65:main.c        ****     ActivateTask(tsk_glower);
 412              		.loc 1 65 0
 413 0058 0420     		movs	r0, #4
 414 005a FFF7FEFF 		bl	EE_oo_ActivateTask
 415              	.LVL38:
  66:main.c        ****     
  67:main.c        ****     TerminateTask();
 416              		.loc 1 67 0
 417 005e FFF7FEFF 		bl	EE_oo_TerminateTask
 418              	.LVL39:
 419 0062 10BD     		pop	{r4, pc}
 420              	.L21:
 421              		.align	2
ARM GAS  C:\Users\DHEERA~1\AppData\Local\Temp\ccbAcITh.s 			page 22


 422              	.L20:
 423 0064 10E000E0 		.word	-536813552
 424 0068 00000000 		.word	.LC0
 425 006c 1C000000 		.word	.LC1
 426 0070 20000000 		.word	.LC2
 427 0074 44000000 		.word	.LC3
 428              		.cfi_endproc
 429              	.LFE113:
 430              		.size	Functsk_init, .-Functsk_init
 431              		.section	.text.Functsk_event,"ax",%progbits
 432              		.align	2
 433              		.global	Functsk_event
 434              		.thumb
 435              		.thumb_func
 436              		.type	Functsk_event, %function
 437              	Functsk_event:
 438              	.LFB114:
  68:main.c        **** }
  69:main.c        **** 
  70:main.c        **** TASK(tsk_event)
  71:main.c        **** {
 439              		.loc 1 71 0
 440              		.cfi_startproc
 441              		@ args = 0, pretend = 0, frame = 8
 442              		@ frame_needed = 0, uses_anonymous_args = 0
 443 0000 10B5     		push	{r4, lr}
 444              		.cfi_def_cfa_offset 8
 445              		.cfi_offset 4, -8
 446              		.cfi_offset 14, -4
 447 0002 82B0     		sub	sp, sp, #8
 448              		.cfi_def_cfa_offset 16
  72:main.c        ****     EventMaskType ev = 0;
 449              		.loc 1 72 0
 450 0004 0024     		movs	r4, #0
 451 0006 0194     		str	r4, [sp, #4]
 452              	.LVL40:
 453              	.L23:
  73:main.c        ****     GAME_event_t event = GAME_NOEVENT;
  74:main.c        ****      
  75:main.c        ****     while(1)
  76:main.c        ****     {
  77:main.c        ****         // As long as no event is received it will wait
  78:main.c        ****         WaitEvent(ev_Button1_Press | ev_Button2_Press | ev_Timeout);
 454              		.loc 1 78 0
 455 0008 0720     		movs	r0, #7
 456 000a FFF7FEFF 		bl	EE_oo_WaitEvent
 457              	.LVL41:
  79:main.c        ****         GetEvent(tsk_event, &ev);
 458              		.loc 1 79 0
 459 000e 01A9     		add	r1, sp, #4
 460 0010 0120     		movs	r0, #1
 461 0012 FFF7FEFF 		bl	EE_oo_GetEvent
 462              	.LVL42:
  80:main.c        ****         ClearEvent(ev);
 463              		.loc 1 80 0
 464 0016 0198     		ldr	r0, [sp, #4]
 465 0018 FFF7FEFF 		bl	EE_oo_ClearEvent
ARM GAS  C:\Users\DHEERA~1\AppData\Local\Temp\ccbAcITh.s 			page 23


 466              	.LVL43:
  81:main.c        ****         
  82:main.c        ****         if(ev & ev_Button1_Press)
 467              		.loc 1 82 0
 468 001c 019B     		ldr	r3, [sp, #4]
 469 001e 13F0010F 		tst	r3, #1
 470 0022 06D1     		bne	.L26
  83:main.c        ****         {
  84:main.c        ****             event = GAME_BUTTON1; // Event button 1 is pressed
  85:main.c        ****         }
  86:main.c        ****         else if (ev & ev_Button2_Press)
 471              		.loc 1 86 0
 472 0024 13F0020F 		tst	r3, #2
 473 0028 05D1     		bne	.L27
  87:main.c        ****         {
  88:main.c        ****             event = GAME_BUTTON2; // Event button 2 is pressed
  89:main.c        ****         }
  90:main.c        ****         else if (ev & ev_Timeout)
 474              		.loc 1 90 0
 475 002a 13F0040F 		tst	r3, #4
 476 002e 04D1     		bne	.L28
 477 0030 04E0     		b	.L24
 478              	.L26:
  84:main.c        ****         }
 479              		.loc 1 84 0
 480 0032 0124     		movs	r4, #1
 481              	.LVL44:
 482 0034 02E0     		b	.L24
 483              	.LVL45:
 484              	.L27:
  88:main.c        ****         }
 485              		.loc 1 88 0
 486 0036 0224     		movs	r4, #2
 487              	.LVL46:
 488 0038 00E0     		b	.L24
 489              	.LVL47:
 490              	.L28:
  91:main.c        ****         {
  92:main.c        ****             event = GAME_TIMEOUT; // Event button is pressed but timeout occured
 491              		.loc 1 92 0
 492 003a 0324     		movs	r4, #3
 493              	.LVL48:
 494              	.L24:
  93:main.c        ****         }
  94:main.c        ****         if(GAME_NOEVENT != event)
 495              		.loc 1 94 0
 496 003c 002C     		cmp	r4, #0
 497 003e E3D0     		beq	.L23
  95:main.c        ****         {  
  96:main.c        ****             GAME_Play(event);
 498              		.loc 1 96 0
 499 0040 2046     		mov	r0, r4
 500 0042 FFF7FEFF 		bl	GAME_Play
 501              	.LVL49:
 502 0046 DFE7     		b	.L23
 503              		.cfi_endproc
 504              	.LFE114:
ARM GAS  C:\Users\DHEERA~1\AppData\Local\Temp\ccbAcITh.s 			page 24


 505              		.size	Functsk_event, .-Functsk_event
 506              		.section	.text.isr_Button,"ax",%progbits
 507              		.align	2
 508              		.global	isr_Button
 509              		.thumb
 510              		.thumb_func
 511              		.type	isr_Button, %function
 512              	isr_Button:
 513              	.LFB115:
  97:main.c        ****         }
  98:main.c        ****     }
  99:main.c        ****     TerminateTask();
 100:main.c        **** }
 101:main.c        **** 
 102:main.c        **** // Interrupt function whenever button is pressed by user
 103:main.c        **** CY_ISR(isr_Button)
 104:main.c        **** {
 514              		.loc 1 104 0
 515              		.cfi_startproc
 516              		@ args = 0, pretend = 0, frame = 0
 517              		@ frame_needed = 0, uses_anonymous_args = 0
 518 0000 08B5     		push	{r3, lr}
 519              		.cfi_def_cfa_offset 8
 520              		.cfi_offset 3, -8
 521              		.cfi_offset 14, -4
 105:main.c        ****     //Whenever Button 1 or Button 2 is pressed, it will pass the event to the Task
 106:main.c        ****     if(Button_1_Read() == 1)
 522              		.loc 1 106 0
 523 0002 FFF7FEFF 		bl	Button_1_Read
 524              	.LVL50:
 525 0006 0128     		cmp	r0, #1
 526 0008 04D1     		bne	.L31
 107:main.c        ****     {
 108:main.c        ****         SetEvent(tsk_event, ev_Button1_Press);    
 527              		.loc 1 108 0
 528 000a 0121     		movs	r1, #1
 529 000c 0846     		mov	r0, r1
 530 000e FFF7FEFF 		bl	EE_oo_SetEvent
 531              	.LVL51:
 532 0012 08BD     		pop	{r3, pc}
 533              	.L31:
 109:main.c        ****     }
 110:main.c        ****     else if (Button_2_Read() == 1)
 534              		.loc 1 110 0
 535 0014 FFF7FEFF 		bl	Button_2_Read
 536              	.LVL52:
 537 0018 0128     		cmp	r0, #1
 538 001a 02D1     		bne	.L30
 111:main.c        ****     {
 112:main.c        ****         SetEvent(tsk_event, ev_Button2_Press);
 539              		.loc 1 112 0
 540 001c 0221     		movs	r1, #2
 541 001e FFF7FEFF 		bl	EE_oo_SetEvent
 542              	.LVL53:
 543              	.L30:
 544 0022 08BD     		pop	{r3, pc}
 545              		.cfi_endproc
ARM GAS  C:\Users\DHEERA~1\AppData\Local\Temp\ccbAcITh.s 			page 25


 546              	.LFE115:
 547              		.size	isr_Button, .-isr_Button
 548              		.comm	randomValue,1,1
 549              		.comm	randomDelay,1,1
 550              		.section	.rodata.str1.4,"aMS",%progbits,1
 551              		.align	2
 552              	.LC0:
 553 0000 57656C63 		.ascii	"Welcome to Reaction Game\015\012\000"
 553      6F6D6520 
 553      746F2052 
 553      65616374 
 553      696F6E20 
 554 001b 00       		.space	1
 555              	.LC1:
 556 001c 0D0A00   		.ascii	"\015\012\000"
 557 001f 00       		.space	1
 558              	.LC2:
 559 0020 52656163 		.ascii	"Reaction test program round: 1\015\012\000"
 559      74696F6E 
 559      20746573 
 559      74207072 
 559      6F677261 
 560 0041 000000   		.space	3
 561              	.LC3:
 562 0044 50726573 		.ascii	"Press one of the two buttons to start...\015\012\000"
 562      73206F6E 
 562      65206F66 
 562      20746865 
 562      2074776F 
 563              		.bss
 564              		.align	2
 565              		.set	.LANCHOR0,. + 0
 566              		.type	timeCount, %object
 567              		.size	timeCount, 4
 568              	timeCount:
 569 0000 00000000 		.space	4
 570              		.text
 571              	.Letext0:
 572              		.file 6 "d:\\psoc creator\\4.4\\psoc creator\\import\\gnu\\arm\\5.4.1\\arm-none-eabi\\include\\mac
 573              		.file 7 "d:\\psoc creator\\4.4\\psoc creator\\import\\gnu\\arm\\5.4.1\\arm-none-eabi\\include\\sys
 574              		.file 8 "Generated_Source\\PSoC5/Erika_OS_common_ee_types.inc"
 575              		.file 9 "Generated_Source\\PSoC5/Erika_OS_ee_oo_common.inc"
 576              		.file 10 "game.h"
 577              		.file 11 "Generated_Source\\PSoC5/Erika_OS_ee_oo_intfunc.inc"
 578              		.file 12 "Generated_Source\\PSoC5/Erika_OS_cortex_mx_ee_context.inc"
 579              		.file 13 "Generated_Source\\PSoC5/Erika_OS_common_ee_primitives.inc"
 580              		.file 14 "Generated_Source\\PSoC5/core_cm3.h"
 581              		.file 15 "Generated_Source\\PSoC5/Erika_OS_ee_oo_kernel.inc"
 582              		.file 16 "Generated_Source\\PSoC5/Erika_OS_ee_oo_irq.inc"
 583              		.file 17 "Generated_Source\\PSoC5/Erika_OS_cortex_mx_ee_irq.inc"
 584              		.file 18 "Generated_Source\\PSoC5/UART_LOG.h"
 585              		.file 19 ".\\source\\bsw/seven.h"
 586              		.file 20 "Generated_Source\\PSoC5/PWM_red.h"
 587              		.file 21 "Generated_Source\\PSoC5/PWM_yellow.h"
 588              		.file 22 "Generated_Source\\PSoC5/PWM_green.h"
 589              		.file 23 "Generated_Source\\PSoC5/RGB_PWM_blue.h"
 590              		.file 24 "Generated_Source\\PSoC5/RGB_PWM_green.h"
ARM GAS  C:\Users\DHEERA~1\AppData\Local\Temp\ccbAcITh.s 			page 26


 591              		.file 25 "Generated_Source\\PSoC5/RGB_PWM_red.h"
 592              		.file 26 "Generated_Source\\PSoC5/Button_1.h"
 593              		.file 27 "Generated_Source\\PSoC5/Button_2.h"